(dp1
S'output'
p2
S"<type 'exceptions.AttributeError'> 'int' object has no attribute 'split'"
p3
sS'layer'
p4
S'E:\\Studium\\SoSe2018\\web2py\\applications\\Cookr\\controllers/appadmin.py'
p5
sS'code'
p6
S'<code object <module> at 05DFF458, file "E:\\Studium\\SoSe2018\\web2py\\applications\\Cookr\\controllers/appadmin.py", line 7>'
p7
sS'snapshot'
p8
(dp9
S'exception'
p10
(dp11
S'__getslice__'
p12
S"<method-wrapper '__getslice__' of exceptions.AttributeError object>"
p13
sS'__str__'
p14
S"<method-wrapper '__str__' of exceptions.AttributeError object>"
p15
sS'__reduce__'
p16
S'<built-in method __reduce__ of exceptions.AttributeError object>'
p17
sS'__dict__'
p18
S'{}'
p19
sS'message'
p20
S'"\'int\' object has no attribute \'split\'"'
p21
sS'__sizeof__'
p22
S'<built-in method __sizeof__ of exceptions.AttributeError object>'
p23
sS'__init__'
p24
S"<method-wrapper '__init__' of exceptions.AttributeError object>"
p25
sS'__setattr__'
p26
S"<method-wrapper '__setattr__' of exceptions.AttributeError object>"
p27
sS'__reduce_ex__'
p28
S'<built-in method __reduce_ex__ of exceptions.AttributeError object>'
p29
sS'__new__'
p30
S'<built-in method __new__ of type object>'
p31
sS'__format__'
p32
S'<built-in method __format__ of exceptions.AttributeError object>'
p33
sS'__class__'
p34
S"<type 'exceptions.AttributeError'>"
p35
sS'__doc__'
p36
S"'Attribute not found.'"
p37
sS'__getitem__'
p38
S"<method-wrapper '__getitem__' of exceptions.AttributeError object>"
p39
sS'__setstate__'
p40
S'<built-in method __setstate__ of exceptions.AttributeError object>'
p41
sS'__getattribute__'
p42
S"<method-wrapper '__getattribute__' of exceptions.AttributeError object>"
p43
sS'args'
p44
S'("\'int\' object has no attribute \'split\'",)'
p45
sS'__subclasshook__'
p46
S'<built-in method __subclasshook__ of type object>'
p47
sS'__unicode__'
p48
S'<built-in method __unicode__ of exceptions.AttributeError object>'
p49
sS'__delattr__'
p50
S"<method-wrapper '__delattr__' of exceptions.AttributeError object>"
p51
sS'__repr__'
p52
S"<method-wrapper '__repr__' of exceptions.AttributeError object>"
p53
sS'__hash__'
p54
S"<method-wrapper '__hash__' of exceptions.AttributeError object>"
p55
ssS'evalue'
p56
S"'int' object has no attribute 'split'"
p57
sS'request'
p58
cgluon.html
XML_unpickle
p59
(S's\xca]\x00\x00<div><table><tr><td style="font-weight:bold;vertical-align:top;">ajax</td><td style="vertical-align:top;">:</td><td><div>False</div></td></tr><tr><td style="font-weight:bold;vertical-align:top;">application</td><td style="vertical-align:top;">:</td><td><div>Cookr</div></td></tr><tr><td style="font-weight:bold;vertical-align:top;">args</td><td style="vertical-align:top;">:</td><td><div><table><tr><td><div>db</div></td></tr><tr><td><div>recipe</div></td></tr><tr><td><div>4</div></td></tr></table></div></td></tr><tr><td style="font-weight:bold;vertical-align:top;">cid</td><td style="vertical-align:top;">:</td><td><div>None</div></td></tr><tr><td style="font-weight:bold;vertical-align:top;">client</td><td style="vertical-align:top;">:</td><td><div>127.0.0.1</div></td></tr><tr><td style="font-weight:bold;vertical-align:top;">controller</td><td style="vertical-align:top;">:</td><td><div>appadmin</div></td></tr><tr><td style="font-weight:bold;vertical-align:top;">cookies</td><td style="vertical-align:top;">:</td><td><div><table><tr><td style="font-weight:bold;vertical-align:top;">session_id_admin</td><td style="vertical-align:top;">:</td><td><div>127.0.0.1-cd437d29-8953-4b18-8292-86a678008826<table><tr><td style="font-weight:bold;vertical-align:top;">comment</td><td style="vertical-align:top;">:</td><td><div></div></td></tr><tr><td style="font-weight:bold;vertical-align:top;">domain</td><td style="vertical-align:top;">:</td><td><div></div></td></tr><tr><td style="font-weight:bold;vertical-align:top;">expires</td><td style="vertical-align:top;">:</td><td><div></div></td></tr><tr><td style="font-weight:bold;vertical-align:top;">httponly</td><td style="vertical-align:top;">:</td><td><div></div></td></tr><tr><td style="font-weight:bold;vertical-align:top;">max-age</td><td style="vertical-align:top;">:</td><td><div></div></td></tr><tr><td style="font-weight:bold;vertical-align:top;">path</td><td style="vertical-align:top;">:</td><td><div></div></td></tr><tr><td style="font-weight:bold;vertical-align:top;">secure</td><td style="vertical-align:top;">:</td><td><div></div></td></tr><tr><td style="font-weight:bold;vertical-align:top;">version</td><td style="vertical-align:top;">:</td><td><div></div></td></tr></table></div></td></tr><tr><td style="font-weight:bold;vertical-align:top;">session_id_cookr</td><td style="vertical-align:top;">:</td><td><div>127.0.0.1-624d3bcf-7f69-4f3a-9fb5-4a0def9a30f2<table><tr><td style="font-weight:bold;vertical-align:top;">comment</td><td style="vertical-align:top;">:</td><td><div></div></td></tr><tr><td style="font-weight:bold;vertical-align:top;">domain</td><td style="vertical-align:top;">:</td><td><div></div></td></tr><tr><td style="font-weight:bold;vertical-align:top;">expires</td><td style="vertical-align:top;">:</td><td><div></div></td></tr><tr><td style="font-weight:bold;vertical-align:top;">httponly</td><td style="vertical-align:top;">:</td><td><div></div></td></tr><tr><td style="font-weight:bold;vertical-align:top;">max-age</td><td style="vertical-align:top;">:</td><td><div></div></td></tr><tr><td style="font-weight:bold;vertical-align:top;">path</td><td style="vertical-align:top;">:</td><td><div></div></td></tr><tr><td style="font-weight:bold;vertical-align:top;">secure</td><td style="vertical-align:top;">:</td><td><div></div></td></tr><tr><td style="font-weight:bold;vertical-align:top;">version</td><td style="vertical-align:top;">:</td><td><div></div></td></tr></table></div></td></tr><tr><td style="font-weight:bold;vertical-align:top;">session_id_welcome</td><td style="vertical-align:top;">:</td><td><div>127.0.0.1-86086d27-beb6-498a-b93b-49985752e54d<table><tr><td style="font-weight:bold;vertical-align:top;">comment</td><td style="vertical-align:top;">:</td><td><div></div></td></tr><tr><td style="font-weight:bold;vertical-align:top;">domain</td><td style="vertical-align:top;">:</td><td><div></div></td></tr><tr><td style="font-weight:bold;vertical-align:top;">expires</td><td style="vertical-align:top;">:</td><td><div></div></td></tr><tr><td style="font-weight:bold;vertical-align:top;">httponly</td><td style="vertical-align:top;">:</td><td><div></div></td></tr><tr><td style="font-weight:bold;vertical-align:top;">max-age</td><td style="vertical-align:top;">:</td><td><div></div></td></tr><tr><td style="font-weight:bold;vertical-align:top;">path</td><td style="vertical-align:top;">:</td><td><div></div></td></tr><tr><td style="font-weight:bold;vertical-align:top;">secure</td><td style="vertical-align:top;">:</td><td><div></div></td></tr><tr><td style="font-weight:bold;vertical-align:top;">version</td><td style="vertical-align:top;">:</td><td><div></div></td></tr></table></div></td></tr></table></div></td></tr><tr><td style="font-weight:bold;vertical-align:top;">env</td><td style="vertical-align:top;">:</td><td><div><table><tr><td style="font-weight:bold;vertical-align:top;">HTTP_ACCEPT</td><td style="vertical-align:top;">:</td><td><div>text/html,application/xhtml+xml,application/xml;q=0.9,image/webp,image/apng,*/*;q=0.8</div></td></tr><tr><td style="font-weight:bold;vertical-align:top;">HTTP_ACCEPT_ENCODING</td><td style="vertical-align:top;">:</td><td><div>gzip, deflate, br</div></td></tr><tr><td style="font-weight:bold;vertical-align:top;">HTTP_ACCEPT_LANGUAGE</td><td style="vertical-align:top;">:</td><td><div>en-US,en;q=0.9</div></td></tr><tr><td style="font-weight:bold;vertical-align:top;">HTTP_CONNECTION</td><td style="vertical-align:top;">:</td><td><div>keep-alive</div></td></tr><tr><td style="font-weight:bold;vertical-align:top;">HTTP_COOKIE</td><td style="vertical-align:top;">:</td><td><div>session_id_admin=127.0.0.1-cd437d29-8953-4b18-8292-86a678008826; session_id_welcome=127.0.0.1-86086d27-beb6-498a-b93b-49985752e54d; session_id_cookr=127.0.0.1-624d3bcf-7f69-4f3a-9fb5-4a0def9a30f2</div></td></tr><tr><td style="font-weight:bold;vertical-align:top;">HTTP_DNT</td><td style="vertical-align:top;">:</td><td><div>1</div></td></tr><tr><td style="font-weight:bold;vertical-align:top;">HTTP_HOST</td><td style="vertical-align:top;">:</td><td><div>127.0.0.1:8000</div></td></tr><tr><td style="font-weight:bold;vertical-align:top;">HTTP_UPGRADE_INSECURE_REQUESTS</td><td style="vertical-align:top;">:</td><td><div>1</div></td></tr><tr><td style="font-weight:bold;vertical-align:top;">HTTP_USER_AGENT</td><td style="vertical-align:top;">:</td><td><div>Mozilla/5.0 (Windows NT 10.0; Win64; x64) AppleWebKit/537.36 (KHTML, like Gecko) Chrome/66.0.3359.181 Safari/537.36</div></td></tr><tr><td style="font-weight:bold;vertical-align:top;">PATH_INFO</td><td style="vertical-align:top;">:</td><td><div>/Cookr/appadmin/update/db/recipe/4</div></td></tr><tr><td style="font-weight:bold;vertical-align:top;">QUERY_STRING</td><td style="vertical-align:top;">:</td><td><div></div></td></tr><tr><td style="font-weight:bold;vertical-align:top;">REMOTE_ADDR</td><td style="vertical-align:top;">:</td><td><div>127.0.0.1</div></td></tr><tr><td style="font-weight:bold;vertical-align:top;">REMOTE_PORT</td><td style="vertical-align:top;">:</td><td><div>50409</div></td></tr><tr><td style="font-weight:bold;vertical-align:top;">REQUEST_METHOD</td><td style="vertical-align:top;">:</td><td><div>GET</div></td></tr><tr><td style="font-weight:bold;vertical-align:top;">SCRIPT_NAME</td><td style="vertical-align:top;">:</td><td><div></div></td></tr><tr><td style="font-weight:bold;vertical-align:top;">SERVER_NAME</td><td style="vertical-align:top;">:</td><td><div>LAPTOP-RO5O265P</div></td></tr><tr><td style="font-weight:bold;vertical-align:top;">SERVER_PORT</td><td style="vertical-align:top;">:</td><td><div>8000</div></td></tr><tr><td style="font-weight:bold;vertical-align:top;">SERVER_PROTOCOL</td><td style="vertical-align:top;">:</td><td><div>HTTP/1.1</div></td></tr><tr><td style="font-weight:bold;vertical-align:top;">SERVER_SOFTWARE</td><td style="vertical-align:top;">:</td><td><div>Rocket 1.2.6</div></td></tr><tr><td style="font-weight:bold;vertical-align:top;">app_folders</td><td style="vertical-align:top;">:</td><td><div>set([&#x27;E:\\\\Studium\\\\SoSe2018\\\\web2py\\\\applications\\\\Cookr\\\\&#x27;, &#x27;E:\\\\Studium\\\\SoSe2018\\\\web2py\\\\applications\\\\admin\\\\&#x27;, &#x27;E:\\\\Studium\\\\SoSe2018\\\\web2py\\\\applications\\\\welcome\\\\&#x27;])</div></td></tr><tr><td style="font-weight:bold;vertical-align:top;">applications_parent</td><td style="vertical-align:top;">:</td><td><div>E:\\Studium\\SoSe2018\\web2py</div></td></tr><tr><td style="font-weight:bold;vertical-align:top;">cmd_args</td><td style="vertical-align:top;">:</td><td><div><table></table></div></td></tr><tr><td style="font-weight:bold;vertical-align:top;">cmd_options</td><td style="vertical-align:top;">:</td><td><div>&lt;Values at 0x331ee90: {&#x27;verbose&#x27;: False, &#x27;ip&#x27;: &#x27;127.0.0.1&#x27;, &#x27;debuglevel&#x27;: 30, &#x27;with_scheduler&#x27;: False, &#x27;shutdown_timeout&#x27;: 5, &#x27;taskbar&#x27;: False, &#x27;with_coverage&#x27;: False, &#x27;pid_filename&#x27;: &#x27;httpserver.pid&#x27;, &#x27;maxthreads&#x27;: None, &#x27;softcron&#x27;: False, &#x27;server_name&#x27;: &#x27;LAPTOP-RO5O265P&#x27;, &#x27;bpython&#x27;: False, &#x27;nogui&#x27;: False, &#x27;port&#x27;: 8000, &#x27;print_errors&#x27;: False, &#x27;extcron&#x27;: False, &#x27;runcron&#x27;: False, &#x27;run_system_tests&#x27;: False, &#x27;test&#x27;: None, &#x27;folder&#x27;: &#x27;E:\\\\Studium\\\\SoSe2018\\\\web2py&#x27;, &#x27;config&#x27;: &#x27;&#x27;, &#x27;minthreads&#x27;: None, &#x27;shell&#x27;: None, &#x27;run&#x27;: &#x27;&#x27;, &#x27;log_filename&#x27;: &#x27;httpserver.log&#x27;, &#x27;profiler_dir&#x27;: None, &#x27;args&#x27;: [&#x27;&#x27;], &#x27;socket_timeout&#x27;: 5, &#x27;ssl_ca_certificate&#x27;: None, &#x27;scheduler&#x27;: None, &#x27;interfaces&#x27;: None, &#x27;ssl_private_key&#x27;: &#x27;&#x27;, &#x27;gae&#x27;: None, &#x27;password&#x27;: &#x27;******&#x27;, &#x27;request_queue_size&#x27;: 5, &#x27;ssl_certificate&#x27;: &#x27;&#x27;, &#x27;cronjob&#x27;: False, &#x27;numthreads&#x27;: None, &#x27;quiet&#x27;: False, &#x27;import_models&#x27;: False, &#x27;timeout&#x27;: 10, &#x27;plain&#x27;: False, &#x27;nobanner&#x27;: False}&gt;</div></td></tr><tr><td style="font-weight:bold;vertical-align:top;">db_sessions</td><td style="vertical-align:top;">:</td><td><div>set([])</div></td></tr><tr><td style="font-weight:bold;vertical-align:top;">debugging</td><td style="vertical-align:top;">:</td><td><div>True</div></td></tr><tr><td style="font-weight:bold;vertical-align:top;">gluon_parent</td><td style="vertical-align:top;">:</td><td><div>E:\\Studium\\SoSe2018\\web2py</div></td></tr><tr><td style="font-weight:bold;vertical-align:top;">http_accept</td><td style="vertical-align:top;">:</td><td><div>text/html,application/xhtml+xml,application/xml;q=0.9,image/webp,image/apng,*/*;q=0.8</div></td></tr><tr><td style="font-weight:bold;vertical-align:top;">http_accept_encoding</td><td style="vertical-align:top;">:</td><td><div>gzip, deflate, br</div></td></tr><tr><td style="font-weight:bold;vertical-align:top;">http_accept_language</td><td style="vertical-align:top;">:</td><td><div>en-US,en;q=0.9</div></td></tr><tr><td style="font-weight:bold;vertical-align:top;">http_connection</td><td style="vertical-align:top;">:</td><td><div>keep-alive</div></td></tr><tr><td style="font-weight:bold;vertical-align:top;">http_cookie</td><td style="vertical-align:top;">:</td><td><div>session_id_admin=127.0.0.1-cd437d29-8953-4b18-8292-86a678008826; session_id_welcome=127.0.0.1-86086d27-beb6-498a-b93b-49985752e54d; session_id_cookr=127.0.0.1-624d3bcf-7f69-4f3a-9fb5-4a0def9a30f2</div></td></tr><tr><td style="font-weight:bold;vertical-align:top;">http_dnt</td><td style="vertical-align:top;">:</td><td><div>1</div></td></tr><tr><td style="font-weight:bold;vertical-align:top;">http_host</td><td style="vertical-align:top;">:</td><td><div>127.0.0.1:8000</div></td></tr><tr><td style="font-weight:bold;vertical-align:top;">http_upgrade_insecure_requests</td><td style="vertical-align:top;">:</td><td><div>1</div></td></tr><tr><td style="font-weight:bold;vertical-align:top;">http_user_agent</td><td style="vertical-align:top;">:</td><td><div>Mozilla/5.0 (Windows NT 10.0; Win64; x64) AppleWebKit/537.36 (KHTML, like Gecko) Chrome/66.0.3359.181 Safari/537.36</div></td></tr><tr><td style="font-weight:bold;vertical-align:top;">is_jython</td><td style="vertical-align:top;">:</td><td><div>False</div></td></tr><tr><td style="font-weight:bold;vertical-align:top;">is_py2</td><td style="vertical-align:top;">:</td><td><div>True</div></td></tr><tr><td style="font-weight:bold;vertical-align:top;">is_pypy</td><td style="vertical-align:top;">:</td><td><div>False</div></td></tr><tr><td style="font-weight:bold;vertical-align:top;">is_source</td><td style="vertical-align:top;">:</td><td><div>False</div></td></tr><tr><td style="font-weight:bold;vertical-align:top;">local_hosts</td><td style="vertical-align:top;">:</td><td><div><table><tr><td><div>fe80::642f:b21f:fdec:c40a%8</div></td></tr><tr><td><div>192.168.178.23</div></td></tr><tr><td><div>::ffff:127.0.0.1</div></td></tr><tr><td><div>::1</div></td></tr><tr><td><div>LAPTOP-RO5O265P.fritz.box</div></td></tr><tr><td><div>LAPTOP-RO5O265P</div></td></tr><tr><td><div>127.0.0.1</div></td></tr></table></div></td></tr><tr><td style="font-weight:bold;vertical-align:top;">path_info</td><td style="vertical-align:top;">:</td><td><div>/Cookr/appadmin/update/db/recipe/4</div></td></tr><tr><td style="font-weight:bold;vertical-align:top;">query_string</td><td style="vertical-align:top;">:</td><td><div></div></td></tr><tr><td style="font-weight:bold;vertical-align:top;">remote_addr</td><td style="vertical-align:top;">:</td><td><div>127.0.0.1</div></td></tr><tr><td style="font-weight:bold;vertical-align:top;">remote_port</td><td style="vertical-align:top;">:</td><td><div>50409</div></td></tr><tr><td style="font-weight:bold;vertical-align:top;">request_method</td><td style="vertical-align:top;">:</td><td><div>GET</div></td></tr><tr><td style="font-weight:bold;vertical-align:top;">request_uri</td><td style="vertical-align:top;">:</td><td><div>/Cookr/appadmin/update/db/recipe/4</div></td></tr><tr><td style="font-weight:bold;vertical-align:top;">script_name</td><td style="vertical-align:top;">:</td><td><div></div></td></tr><tr><td style="font-weight:bold;vertical-align:top;">server_name</td><td style="vertical-align:top;">:</td><td><div>LAPTOP-RO5O265P</div></td></tr><tr><td style="font-weight:bold;vertical-align:top;">server_port</td><td style="vertical-align:top;">:</td><td><div>8000</div></td></tr><tr><td style="font-weight:bold;vertical-align:top;">server_protocol</td><td style="vertical-align:top;">:</td><td><div>HTTP/1.1</div></td></tr><tr><td style="font-weight:bold;vertical-align:top;">server_software</td><td style="vertical-align:top;">:</td><td><div>Rocket 1.2.6</div></td></tr><tr><td style="font-weight:bold;vertical-align:top;">web2py_path</td><td style="vertical-align:top;">:</td><td><div>E:\\Studium\\SoSe2018\\web2py</div></td></tr><tr><td style="font-weight:bold;vertical-align:top;">web2py_version</td><td style="vertical-align:top;">:</td><td><div>2.16.1-stable+timestamp.2017.11.14.05.54.25</div></td></tr><tr><td style="font-weight:bold;vertical-align:top;">wsgi.errors</td><td style="vertical-align:top;">:</td><td><div>&lt;open file &#x27;&lt;stderr&gt;&#x27;, mode &#x27;w&#x27; at 0x023CD0D0&gt;</div></td></tr><tr><td style="font-weight:bold;vertical-align:top;">wsgi.file_wrapper</td><td style="vertical-align:top;">:</td><td><div>&lt;class wsgiref.util.FileWrapper at 0x0321AC00&gt;</div></td></tr><tr><td style="font-weight:bold;vertical-align:top;">wsgi.input</td><td style="vertical-align:top;">:</td><td><div>&lt;socket._fileobject object at 0x061DE7B0&gt;</div></td></tr><tr><td style="font-weight:bold;vertical-align:top;">wsgi.multiprocess</td><td style="vertical-align:top;">:</td><td><div>False</div></td></tr><tr><td style="font-weight:bold;vertical-align:top;">wsgi.multithread</td><td style="vertical-align:top;">:</td><td><div>True</div></td></tr><tr><td style="font-weight:bold;vertical-align:top;">wsgi.run_once</td><td style="vertical-align:top;">:</td><td><div>False</div></td></tr><tr><td style="font-weight:bold;vertical-align:top;">wsgi.url_scheme</td><td style="vertical-align:top;">:</td><td><div>http</div></td></tr><tr><td style="font-weight:bold;vertical-align:top;">wsgi.version</td><td style="vertical-align:top;">:</td><td><div><table><tr><td><div>1</div></td></tr><tr><td><div>0</div></td></tr></table></div></td></tr><tr><td style="font-weight:bold;vertical-align:top;">wsgi_errors</td><td style="vertical-align:top;">:</td><td><div>&lt;open file &#x27;&lt;stderr&gt;&#x27;, mode &#x27;w&#x27; at 0x023CD0D0&gt;</div></td></tr><tr><td style="font-weight:bold;vertical-align:top;">wsgi_file_wrapper</td><td style="vertical-align:top;">:</td><td><div>&lt;class wsgiref.util.FileWrapper at 0x0321AC00&gt;</div></td></tr><tr><td style="font-weight:bold;vertical-align:top;">wsgi_input</td><td style="vertical-align:top;">:</td><td><div>&lt;socket._fileobject object at 0x061DE7B0&gt;</div></td></tr><tr><td style="font-weight:bold;vertical-align:top;">wsgi_multiprocess</td><td style="vertical-align:top;">:</td><td><div>False</div></td></tr><tr><td style="font-weight:bold;vertical-align:top;">wsgi_multithread</td><td style="vertical-align:top;">:</td><td><div>True</div></td></tr><tr><td style="font-weight:bold;vertical-align:top;">wsgi_run_once</td><td style="vertical-align:top;">:</td><td><div>False</div></td></tr><tr><td style="font-weight:bold;vertical-align:top;">wsgi_url_scheme</td><td style="vertical-align:top;">:</td><td><div>http</div></td></tr><tr><td style="font-weight:bold;vertical-align:top;">wsgi_version</td><td style="vertical-align:top;">:</td><td><div><table><tr><td><div>1</div></td></tr><tr><td><div>0</div></td></tr></table></div></td></tr></table></div></td></tr><tr><td style="font-weight:bold;vertical-align:top;">extension</td><td style="vertical-align:top;">:</td><td><div>html</div></td></tr><tr><td style="font-weight:bold;vertical-align:top;">folder</td><td style="vertical-align:top;">:</td><td><div>E:\\Studium\\SoSe2018\\web2py\\applications\\Cookr\\</div></td></tr><tr><td style="font-weight:bold;vertical-align:top;">function</td><td style="vertical-align:top;">:</td><td><div>update</div></td></tr><tr><td style="font-weight:bold;vertical-align:top;">global_settings</td><td style="vertical-align:top;">:</td><td><div><table><tr><td style="font-weight:bold;vertical-align:top;">app_folders</td><td style="vertical-align:top;">:</td><td><div>set([&#x27;E:\\\\Studium\\\\SoSe2018\\\\web2py\\\\applications\\\\Cookr\\\\&#x27;, &#x27;E:\\\\Studium\\\\SoSe2018\\\\web2py\\\\applications\\\\admin\\\\&#x27;, &#x27;E:\\\\Studium\\\\SoSe2018\\\\web2py\\\\applications\\\\welcome\\\\&#x27;])</div></td></tr><tr><td style="font-weight:bold;vertical-align:top;">applications_parent</td><td style="vertical-align:top;">:</td><td><div>E:\\Studium\\SoSe2018\\web2py</div></td></tr><tr><td style="font-weight:bold;vertical-align:top;">cmd_args</td><td style="vertical-align:top;">:</td><td><div><table></table></div></td></tr><tr><td style="font-weight:bold;vertical-align:top;">cmd_options</td><td style="vertical-align:top;">:</td><td><div>&lt;Values at 0x331ee90: {&#x27;verbose&#x27;: False, &#x27;ip&#x27;: &#x27;127.0.0.1&#x27;, &#x27;debuglevel&#x27;: 30, &#x27;with_scheduler&#x27;: False, &#x27;shutdown_timeout&#x27;: 5, &#x27;taskbar&#x27;: False, &#x27;with_coverage&#x27;: False, &#x27;pid_filename&#x27;: &#x27;httpserver.pid&#x27;, &#x27;maxthreads&#x27;: None, &#x27;softcron&#x27;: False, &#x27;server_name&#x27;: &#x27;LAPTOP-RO5O265P&#x27;, &#x27;bpython&#x27;: False, &#x27;nogui&#x27;: False, &#x27;port&#x27;: 8000, &#x27;print_errors&#x27;: False, &#x27;extcron&#x27;: False, &#x27;runcron&#x27;: False, &#x27;run_system_tests&#x27;: False, &#x27;test&#x27;: None, &#x27;folder&#x27;: &#x27;E:\\\\Studium\\\\SoSe2018\\\\web2py&#x27;, &#x27;config&#x27;: &#x27;&#x27;, &#x27;minthreads&#x27;: None, &#x27;shell&#x27;: None, &#x27;run&#x27;: &#x27;&#x27;, &#x27;log_filename&#x27;: &#x27;httpserver.log&#x27;, &#x27;profiler_dir&#x27;: None, &#x27;args&#x27;: [&#x27;&#x27;], &#x27;socket_timeout&#x27;: 5, &#x27;ssl_ca_certificate&#x27;: None, &#x27;scheduler&#x27;: None, &#x27;interfaces&#x27;: None, &#x27;ssl_private_key&#x27;: &#x27;&#x27;, &#x27;gae&#x27;: None, &#x27;password&#x27;: &#x27;******&#x27;, &#x27;request_queue_size&#x27;: 5, &#x27;ssl_certificate&#x27;: &#x27;&#x27;, &#x27;cronjob&#x27;: False, &#x27;numthreads&#x27;: None, &#x27;quiet&#x27;: False, &#x27;import_models&#x27;: False, &#x27;timeout&#x27;: 10, &#x27;plain&#x27;: False, &#x27;nobanner&#x27;: False}&gt;</div></td></tr><tr><td style="font-weight:bold;vertical-align:top;">db_sessions</td><td style="vertical-align:top;">:</td><td><div>set([])</div></td></tr><tr><td style="font-weight:bold;vertical-align:top;">debugging</td><td style="vertical-align:top;">:</td><td><div>True</div></td></tr><tr><td style="font-weight:bold;vertical-align:top;">gluon_parent</td><td style="vertical-align:top;">:</td><td><div>E:\\Studium\\SoSe2018\\web2py</div></td></tr><tr><td style="font-weight:bold;vertical-align:top;">is_jython</td><td style="vertical-align:top;">:</td><td><div>False</div></td></tr><tr><td style="font-weight:bold;vertical-align:top;">is_py2</td><td style="vertical-align:top;">:</td><td><div>True</div></td></tr><tr><td style="font-weight:bold;vertical-align:top;">is_pypy</td><td style="vertical-align:top;">:</td><td><div>False</div></td></tr><tr><td style="font-weight:bold;vertical-align:top;">is_source</td><td style="vertical-align:top;">:</td><td><div>False</div></td></tr><tr><td style="font-weight:bold;vertical-align:top;">local_hosts</td><td style="vertical-align:top;">:</td><td><div><table><tr><td><div>fe80::642f:b21f:fdec:c40a%8</div></td></tr><tr><td><div>192.168.178.23</div></td></tr><tr><td><div>::ffff:127.0.0.1</div></td></tr><tr><td><div>::1</div></td></tr><tr><td><div>LAPTOP-RO5O265P.fritz.box</div></td></tr><tr><td><div>LAPTOP-RO5O265P</div></td></tr><tr><td><div>127.0.0.1</div></td></tr></table></div></td></tr><tr><td style="font-weight:bold;vertical-align:top;">web2py_version</td><td style="vertical-align:top;">:</td><td><div>2.16.1-stable+timestamp.2017.11.14.05.54.25</div></td></tr></table></div></td></tr><tr><td style="font-weight:bold;vertical-align:top;">is_https</td><td style="vertical-align:top;">:</td><td><div>False</div></td></tr><tr><td style="font-weight:bold;vertical-align:top;">is_local</td><td style="vertical-align:top;">:</td><td><div>True</div></td></tr><tr><td style="font-weight:bold;vertical-align:top;">is_restful</td><td style="vertical-align:top;">:</td><td><div>False</div></td></tr><tr><td style="font-weight:bold;vertical-align:top;">is_scheduler</td><td style="vertical-align:top;">:</td><td><div>False</div></td></tr><tr><td style="font-weight:bold;vertical-align:top;">is_shell</td><td style="vertical-align:top;">:</td><td><div>False</div></td></tr><tr><td style="font-weight:bold;vertical-align:top;">now</td><td style="vertical-align:top;">:</td><td><div>datetime.datetime(2018, 6, 8, 16, 46, 26, 645000)</div></td></tr><tr><td style="font-weight:bold;vertical-align:top;">raw_args</td><td style="vertical-align:top;">:</td><td><div>db/recipe/4</div></td></tr><tr><td style="font-weight:bold;vertical-align:top;">raw_extension</td><td style="vertical-align:top;">:</td><td><div>None</div></td></tr><tr><td style="font-weight:bold;vertical-align:top;">url</td><td style="vertical-align:top;">:</td><td><div>/Cookr/appadmin/update/db/recipe/4</div></td></tr><tr><td style="font-weight:bold;vertical-align:top;">utcnow</td><td style="vertical-align:top;">:</td><td><div>datetime.datetime(2018, 6, 8, 14, 46, 26, 645000)</div></td></tr><tr><td style="font-weight:bold;vertical-align:top;">wsgi</td><td style="vertical-align:top;">:</td><td><div>&lt;gluon.main.LazyWSGI object at 0x061E0E30&gt;</div></td></tr></table></div>'
tRp60
sS'frames'
p61
(lp62
(dp63
S'file'
p64
S'E:\\Studium\\SoSe2018\\web2py\\gluon\\restricted.py'
p65
sS'dump'
p66
(dp67
S'environment'
p68
S"{'A': <class 'gluon.html.A'>, 'ANY_OF': <class 'gluon.validators.ANY_OF'>, 'ASSIGNJS': <function ASSIGNJS>, 'AppConfig': <function AppConfig>, 'Auth': <class 'gluon.tools.Auth'>, 'B': <class 'gluon.html.B'>, 'BEAUTIFY': <class 'gluon.html.BEAUTIFY'>, 'BODY': <class 'gluon.html.BODY'>, 'BR': <class 'gluon.html.BR'>, 'BUTTON': <class 'gluon.html.BUTTON'>, ...}"
p69
sS'ccode'
p70
S'<code object <module> at 05DFF458, file "E:\\Stud...lications\\Cookr\\controllers/appadmin.py", line 7>'
p71
ssS'lnum'
p72
I219
sS'lines'
p73
(dp74
I214
S'    if environment is None:'
p75
sI215
S'        environment = {}'
p76
sI216
S"    environment['__file__'] = layer"
p77
sI217
S"    environment['__name__'] = '__restricted__'"
p78
sI218
S'    try:'
p79
sI219
S'        exec(ccode, environment)'
p80
sI220
S'    except HTTP:'
p81
sI221
S'        raise'
p82
sI222
S'    except RestrictedError:'
p83
sI223
S'        # do not encapsulate (obfuscate) the original RestrictedError'
p84
ssS'call'
p85
S'(ccode=<code object <module> at 05DFF458, file "E:\\Stud...lications\\Cookr\\controllers/appadmin.py", line 7>, environment={\'A\': <class \'gluon.html.A\'>, \'ANY_OF\': <class \'gluon.validators.ANY_OF\'>, \'ASSIGNJS\': <function ASSIGNJS>, \'AppConfig\': <function AppConfig>, \'Auth\': <class \'gluon.tools.Auth\'>, \'B\': <class \'gluon.html.B\'>, \'BEAUTIFY\': <class \'gluon.html.BEAUTIFY\'>, \'BODY\': <class \'gluon.html.BODY\'>, \'BR\': <class \'gluon.html.BR\'>, \'BUTTON\': <class \'gluon.html.BUTTON\'>, ...}, layer=r\'E:\\Studium\\SoSe2018\\web2py\\applications\\Cookr\\controllers/appadmin.py\', scode=<code object <module> at 05DFF458, file "E:\\Stud...lications\\Cookr\\controllers/appadmin.py", line 7>)'
p86
sS'func'
p87
S'restricted'
p88
sa(dp89
g64
S'E:\\Studium\\SoSe2018\\web2py\\applications\\Cookr\\controllers\\appadmin.py'
p90
sg66
(dp91
sg72
I696
sg73
(dp92
I685
S"                    referenced_table = f_type.split()[1].split('.')[0]"
p93
sI686
S''
sI687
S'                    links.append(dict(source=tablename, target = referenced_table))'
p94
sI688
S''
sI689
S'            nodes.append(dict(name=tablename, type="table", fields = fields))'
p95
sI690
S''
sI691
S'    # d3 v4 allows individual modules to be specified.  The complete d3 library is included below.'
p96
sI692
S"    response.files.append(URL('admin','static','js/d3.min.js'))"
p97
sI693
S"    response.files.append(URL('admin','static','js/d3_graph.js'))"
p98
sI694
S'    return dict(databases=databases, nodes=nodes, links=links)'
p99
ssg85
S'()'
p100
sg87
S'<module>'
p101
sa(dp102
g64
S'E:\\Studium\\SoSe2018\\web2py\\gluon\\globals.py'
p103
sg66
(dp104
S'self'
p105
S'undefined'
p106
sS'f'
S'<function update>'
p107
ssg72
I419
sg73
(dp108
I416
S'        self.menu = []             # used by the default view layout'
p109
sI417
S'        self.files = []            # used by web2py_ajax.html'
p110
sI418
S'        self._vars = None'
p111
sI419
S'        self._caller = lambda f: f()'
p112
sI420
S'        self._view_environment = None'
p113
sI421
S'        self._custom_commit = None'
p114
sI422
S'        self._custom_rollback = None'
p115
sI423
S"        self.generic_patterns = ['*']"
p116
sI414
S"        self.flash = ''            # used by the default view layout"
p117
sI415
S'        self.meta = Storage()      # used by web2py_ajax.html'
p118
ssg85
S'(f=<function update>)'
p119
sg87
S'<lambda>'
p120
sa(dp121
g64
S'E:\\Studium\\SoSe2018\\web2py\\applications\\Cookr\\controllers\\appadmin.py'
p122
sg66
(dp123
sg72
I320
sg73
(dp124
I320
S'            2)).select().first()'
p125
sI321
S''
sI322
S'    if not record:'
p126
sI323
S'        qry = query_by_table_type(table, db)'
p127
sI324
S"        session.flash = T('record does not exist')"
p128
sI315
S'        if key:'
p129
sI316
S'            record = db(db[table][key[0]] == request.vars[key['
p130
sI317
S'                        0]]).select().first()'
p131
sI318
S'    else:'
p132
sI319
S'        record = db(db[table].id == request.args('
p133
ssg85
S'()'
p134
sg87
S'update'
p135
sa(dp136
g64
S'E:\\Studium\\SoSe2018\\web2py\\gluon\\packages\\dal\\pydal\\objects.py'
p137
sg66
(dp138
S'self.query'
p139
S'<Query ("recipe"."id" = 4)>'
p140
sS'adapter.select'
p141
S'<bound method SQLite.select of <pydal.adapters.sqlite.SQLite object>>'
p142
sS'fields'
p143
S'[<pydal.objects.Field object>, <pydal.objects.Field object>, <pydal.objects.Field object>, <pydal.objects.Field object>, <pydal.objects.Field object>, <pydal.objects.Field object>, <pydal.objects.Field object>, <pydal.objects.Field object>, <pydal.objects.Field object>, <pydal.objects.Field object>, <pydal.objects.Field object>]'
p144
sS'adapter'
p145
S'<pydal.adapters.sqlite.SQLite object>'
p146
sS'attributes'
p147
g19
sS'self'
p148
S'<Set ("recipe"."id" = 4)>'
p149
ssg72
I2250
sg73
(dp150
I2245
S"                                    attributes.get('join', None),"
p151
sI2246
S"                                    attributes.get('left', None),"
p152
sI2247
S"                                    attributes.get('orderby', None),"
p153
sI2248
S"                                    attributes.get('groupby', None))"
p154
sI2249
S'        fields = adapter.expand_all(fields, tablenames)'
p155
sI2250
S'        return adapter.select(self.query, fields, attributes)'
p156
sI2251
S''
sI2252
S'    def iterselect(self, *fields, **attributes):'
p157
sI2253
S'        adapter = self.db._adapter'
p158
sI2254
S'        tablenames = adapter.tables(self.query,'
p159
ssg85
S'(self=<Set ("recipe"."id" = 4)>, *fields=[<pydal.objects.Field object>, <pydal.objects.Field object>, <pydal.objects.Field object>, <pydal.objects.Field object>, <pydal.objects.Field object>, <pydal.objects.Field object>, <pydal.objects.Field object>, <pydal.objects.Field object>, <pydal.objects.Field object>, <pydal.objects.Field object>, <pydal.objects.Field object>], **attributes={})'
p160
sg87
S'select'
p161
sa(dp162
g64
S'E:\\Studium\\SoSe2018\\web2py\\gluon\\packages\\dal\\pydal\\adapters\\sqlite.py'
p163
sg66
(dp164
S'fields'
p165
S'[<pydal.objects.Field object>, <pydal.objects.Field object>, <pydal.objects.Field object>, <pydal.objects.Field object>, <pydal.objects.Field object>, <pydal.objects.Field object>, <pydal.objects.Field object>, <pydal.objects.Field object>, <pydal.objects.Field object>, <pydal.objects.Field object>, <pydal.objects.Field object>]'
p166
sS'self'
p167
S'<pydal.adapters.sqlite.SQLite object>'
p168
sS').select'
p169
S'<bound method SQLite.select of <pydal.adapters.sqlite.SQLite object>>'
p170
sS'attributes'
p171
g19
sS'query'
p172
S'<Query ("recipe"."id" = 4)>'
p173
sS'builtinsuper'
p174
S"<type 'super'>"
p175
sS'global SQLite'
p176
S"<class 'pydal.adapters.sqlite.SQLite'>"
p177
ssg72
I82
sg73
(dp178
I77
S"            self.execute('PRAGMA foreign_keys=ON;')"
p179
sI78
S''
sI79
S'    def select(self, query, fields, attributes):'
p180
sI80
S"        if attributes.get('for_update', False) and 'cache' not in attributes:"
p181
sI81
S"            self.execute('BEGIN IMMEDIATE TRANSACTION;')"
p182
sI82
S'        return super(SQLite, self).select(query, fields, attributes)'
p183
sI83
S''
sI84
S'    def delete(self, table, query):'
p184
sI85
S'        db = self.db'
p185
sI86
S'        deleted = [x[table._id.name] for x in db(query).select(table._id)]'
p186
ssg85
S'(self=<pydal.adapters.sqlite.SQLite object>, query=<Query ("recipe"."id" = 4)>, fields=[<pydal.objects.Field object>, <pydal.objects.Field object>, <pydal.objects.Field object>, <pydal.objects.Field object>, <pydal.objects.Field object>, <pydal.objects.Field object>, <pydal.objects.Field object>, <pydal.objects.Field object>, <pydal.objects.Field object>, <pydal.objects.Field object>, <pydal.objects.Field object>], attributes={})'
p187
sg87
g161
sa(dp188
g64
S'E:\\Studium\\SoSe2018\\web2py\\gluon\\packages\\dal\\pydal\\adapters\\base.py'
p189
sg66
(dp190
S'self._select_aux'
p191
S'<bound method SQLite._select_aux of <pydal.adapters.sqlite.SQLite object>>'
p192
sS'fields'
p193
S'[<pydal.objects.Field object>, <pydal.objects.Field object>, <pydal.objects.Field object>, <pydal.objects.Field object>, <pydal.objects.Field object>, <pydal.objects.Field object>, <pydal.objects.Field object>, <pydal.objects.Field object>, <pydal.objects.Field object>, <pydal.objects.Field object>, <pydal.objects.Field object>]'
p194
sS'self'
p195
S'<pydal.adapters.sqlite.SQLite object>'
p196
sS'sql'
p197
S'\'SELECT "recipe"."id", "recipe"."writer", "recipe...ription" FROM "recipe" WHERE ("recipe"."id" = 4);\''
p198
sS'attributes'
p199
g19
sS'colnames'
p200
S"['recipe.id', 'recipe.writer', 'recipe.category', 'recipe.difficulty', 'recipe.priceCategory', 'recipe.origin', 'recipe.title', 'recipe.duration', 'recipe.forAmountOfPeople', 'recipe.creationDate', 'recipe.description']"
p201
ssg72
I762
sg73
(dp202
I757
S'        colnames, sql = self._select_wcols(query, fields, **attributes)'
p203
sI758
S"        cache = attributes.get('cache', None)"
p204
sI759
S"        if cache and attributes.get('cacheable', False):"
p205
sI760
S'            return self._cached_select('
p206
sI761
S'                cache, sql, fields, attributes, colnames)'
p207
sI762
S'        return self._select_aux(sql, fields, attributes, colnames)'
p208
sI763
S''
sI764
S'    def iterselect(self, query, fields, attributes):'
p209
sI765
S'        colnames, sql = self._select_wcols(query, fields, **attributes)'
p210
sI766
S"        cacheable = attributes.get('cacheable', False)"
p211
ssg85
S'(self=<pydal.adapters.sqlite.SQLite object>, query=<Query ("recipe"."id" = 4)>, fields=[<pydal.objects.Field object>, <pydal.objects.Field object>, <pydal.objects.Field object>, <pydal.objects.Field object>, <pydal.objects.Field object>, <pydal.objects.Field object>, <pydal.objects.Field object>, <pydal.objects.Field object>, <pydal.objects.Field object>, <pydal.objects.Field object>, <pydal.objects.Field object>], attributes={})'
p212
sg87
g161
sa(dp213
g64
S'E:\\Studium\\SoSe2018\\web2py\\gluon\\packages\\dal\\pydal\\adapters\\base.py'
p214
sg66
(dp215
S'fields'
p216
S'[<pydal.objects.Field object>, <pydal.objects.Field object>, <pydal.objects.Field object>, <pydal.objects.Field object>, <pydal.objects.Field object>, <pydal.objects.Field object>, <pydal.objects.Field object>, <pydal.objects.Field object>, <pydal.objects.Field object>, <pydal.objects.Field object>, <pydal.objects.Field object>]'
p217
sS'colnames'
p218
S"['recipe.id', 'recipe.writer', 'recipe.category', 'recipe.difficulty', 'recipe.priceCategory', 'recipe.origin', 'recipe.title', 'recipe.duration', 'recipe.forAmountOfPeople', 'recipe.creationDate', 'recipe.description']"
p219
sS'rows'
p220
S"[(4, 3, 2, 2, 2, 2, u'Neues Rezept', 50, 2, datetime.date(2018, 6, 7), u'Das muss noch alles gemacht werden: \\r\\nNeuer Absatz3')]"
p221
sS'processor'
p222
S'<bound method SQLite.parse of <pydal.adapters.sqlite.SQLite object>>'
p223
sS'cacheable'
p224
S'False'
p225
ssg72
I741
sg73
(dp226
I736
S'            rows = list(rows)'
p227
sI737
S"        limitby = attributes.get('limitby', None) or (0,)"
p228
sI738
S'        rows = self.rowslice(rows, limitby[0], None)'
p229
sI739
S"        processor = attributes.get('processor', self.parse)"
p230
sI740
S"        cacheable = attributes.get('cacheable', False)"
p231
sI741
S'        return processor(rows, fields, colnames, cacheable=cacheable)'
p232
sI742
S''
sI743
S'    def _cached_select(self, cache, sql, fields, attributes, colnames):'
p233
sI744
S"        del attributes['cache']"
p234
sI745
S'        (cache_model, time_expire) = cache'
p235
ssg85
S'(self=<pydal.adapters.sqlite.SQLite object>, sql=\'SELECT "recipe"."id", "recipe"."writer", "recipe...ription" FROM "recipe" WHERE ("recipe"."id" = 4);\', fields=[<pydal.objects.Field object>, <pydal.objects.Field object>, <pydal.objects.Field object>, <pydal.objects.Field object>, <pydal.objects.Field object>, <pydal.objects.Field object>, <pydal.objects.Field object>, <pydal.objects.Field object>, <pydal.objects.Field object>, <pydal.objects.Field object>, <pydal.objects.Field object>], attributes={}, colnames=[\'recipe.id\', \'recipe.writer\', \'recipe.category\', \'recipe.difficulty\', \'recipe.priceCategory\', \'recipe.origin\', \'recipe.title\', \'recipe.duration\', \'recipe.forAmountOfPeople\', \'recipe.creationDate\', \'recipe.description\'])'
p236
sg87
S'_select_aux'
p237
sa(dp238
g64
S'E:\\Studium\\SoSe2018\\web2py\\gluon\\packages\\dal\\pydal\\adapters\\base.py'
p239
sg66
(dp240
S'rows'
p241
S"[(4, 3, 2, 2, 2, 2, u'Neues Rezept', 50, 2, datetime.date(2018, 6, 7), u'Das muss noch alles gemacht werden: \\r\\nNeuer Absatz3')]"
p242
sS'row'
p243
S"(4, 3, 2, 2, 2, 2, u'Neues Rezept', 50, 2, datetime.date(2018, 6, 7), u'Das muss noch alles gemacht werden: \\r\\nNeuer Absatz3')"
p244
ssg72
I305
sg73
(dp245
I300
S'            self._parse_expand_colnames(fields)'
p246
sI301
S'        new_rows = ['
p247
sI302
S'            self._parse('
p248
sI303
S'                row, tmps, fields, colnames, blob_decode, cacheable,'
p249
sI304
S'                fields_virtual, fields_lazy)'
p250
sI305
S'            for row in rows'
p251
sI306
S'        ]'
p252
sI307
S'        rowsobj = self.db.Rows(self.db, new_rows, colnames, rawrows=rows,'
p253
sI308
S'                fields=fields)'
p254
sI309
S'        # Old style virtual fields'
p255
ssg85
S"(self=<pydal.adapters.sqlite.SQLite object>, rows=[(4, 3, 2, 2, 2, 2, u'Neues Rezept', 50, 2, datetime.date(2018, 6, 7), u'Das muss noch alles gemacht werden: \\r\\nNeuer Absatz3')], fields=[<pydal.objects.Field object>, <pydal.objects.Field object>, <pydal.objects.Field object>, <pydal.objects.Field object>, <pydal.objects.Field object>, <pydal.objects.Field object>, <pydal.objects.Field object>, <pydal.objects.Field object>, <pydal.objects.Field object>, <pydal.objects.Field object>, <pydal.objects.Field object>], colnames=['recipe.id', 'recipe.writer', 'recipe.category', 'recipe.difficulty', 'recipe.priceCategory', 'recipe.origin', 'recipe.title', 'recipe.duration', 'recipe.forAmountOfPeople', 'recipe.creationDate', 'recipe.description'], blob_decode=True, cacheable=False)"
p256
sg87
S'parse'
p257
sa(dp258
g64
S'E:\\Studium\\SoSe2018\\web2py\\gluon\\packages\\dal\\pydal\\adapters\\base.py'
p259
sg66
(dp260
S'blob_decode'
p261
S'True'
p262
sS'ft'
p263
S"'list:reference category'"
p264
sS'fit'
p265
S"'list:reference'"
p266
sS'self.parse_value'
p267
S'<bound method SQLite.parse_value of <pydal.adapters.sqlite.SQLite object>>'
p268
sS'self'
p269
S'<pydal.adapters.sqlite.SQLite object>'
p270
sS'value'
p271
S'2'
ssg72
I231
sg73
(dp272
I226
S'            #: do we have a real column?'
p273
sI227
S'            if tmp:'
p274
sI228
S'                (tablename, fieldname, table, field, ft, fit) = tmp'
p275
sI229
S'                colset = new_row[tablename]'
p276
sI230
S'                #: parse value'
p277
sI231
S'                value = self.parse_value(value, fit, ft, blob_decode)'
p278
sI232
S'                if field.filter_out:'
p279
sI233
S'                    value = field.filter_out(value)'
p280
sI234
S'                colset[fieldname] = value'
p281
sI235
S'                #! backward compatibility'
p282
ssg85
S"(self=<pydal.adapters.sqlite.SQLite object>, row=(4, 3, 2, 2, 2, 2, u'Neues Rezept', 50, 2, datetime.date(2018, 6, 7), u'Das muss noch alles gemacht werden: \\r\\nNeuer Absatz3'), tmps=[('recipe', 'id', <Table recipe (id, writer, category, difficulty,...n, forAmountOfPeople, creationDate, description)>, <pydal.objects.Field object>, 'id', 'id'), ('recipe', 'writer', <Table recipe (id, writer, category, difficulty,...n, forAmountOfPeople, creationDate, description)>, <pydal.objects.Field object>, 'reference auth_user', 'reference'), ('recipe', 'category', <Table recipe (id, writer, category, difficulty,...n, forAmountOfPeople, creationDate, description)>, <pydal.objects.Field object>, 'list:reference category', 'list:reference'), ('recipe', 'difficulty', <Table recipe (id, writer, category, difficulty,...n, forAmountOfPeople, creationDate, description)>, <pydal.objects.Field object>, 'reference difficulty', 'reference'), ('recipe', 'priceCategory', <Table recipe (id, writer, category, difficulty,...n, forAmountOfPeople, creationDate, description)>, <pydal.objects.Field object>, 'reference priceCategory', 'reference'), ('recipe', 'origin', <Table recipe (id, writer, category, difficulty,...n, forAmountOfPeople, creationDate, description)>, <pydal.objects.Field object>, 'reference origin', 'reference'), ('recipe', 'title', <Table recipe (id, writer, category, difficulty,...n, forAmountOfPeople, creationDate, description)>, <pydal.objects.Field object>, 'string', 'string'), ('recipe', 'duration', <Table recipe (id, writer, category, difficulty,...n, forAmountOfPeople, creationDate, description)>, <pydal.objects.Field object>, 'integer', 'integer'), ('recipe', 'forAmountOfPeople', <Table recipe (id, writer, category, difficulty,...n, forAmountOfPeople, creationDate, description)>, <pydal.objects.Field object>, 'integer', 'integer'), ('recipe', 'creationDate', <Table recipe (id, writer, category, difficulty,...n, forAmountOfPeople, creationDate, description)>, <pydal.objects.Field object>, 'date', 'date'), ('recipe', 'description', <Table recipe (id, writer, category, difficulty,...n, forAmountOfPeople, creationDate, description)>, <pydal.objects.Field object>, 'text', 'text')], fields=[<pydal.objects.Field object>, <pydal.objects.Field object>, <pydal.objects.Field object>, <pydal.objects.Field object>, <pydal.objects.Field object>, <pydal.objects.Field object>, <pydal.objects.Field object>, <pydal.objects.Field object>, <pydal.objects.Field object>, <pydal.objects.Field object>, <pydal.objects.Field object>], colnames=['recipe.id', 'recipe.writer', 'recipe.category', 'recipe.difficulty', 'recipe.priceCategory', 'recipe.origin', 'recipe.title', 'recipe.duration', 'recipe.forAmountOfPeople', 'recipe.creationDate', 'recipe.description'], blob_decode=True, cacheable=False, fields_virtual={'recipe': (<Table recipe (id, writer, category, difficulty,...n, forAmountOfPeople, creationDate, description)>, [])}, fields_lazy={'recipe': (<Table recipe (id, writer, category, difficulty,...n, forAmountOfPeople, creationDate, description)>, [])})"
p283
sg87
S'_parse'
p284
sa(dp285
g64
S'E:\\Studium\\SoSe2018\\web2py\\gluon\\packages\\dal\\pydal\\adapters\\base.py'
p286
sg66
(dp287
S'field_type'
p288
S"'list:reference category'"
p289
sS'self'
p290
S'<pydal.adapters.sqlite.SQLite object>'
p291
sS'value'
p292
S'2'
sS'self.parser'
p293
S'<pydal.parsers.sqlite.SQLiteParser object>'
p294
sS'field_itype'
p295
S"'list:reference'"
p296
sS'self.parser.parse'
p297
S'<bound method SQLiteParser.parse of <pydal.parsers.sqlite.SQLiteParser object>>'
p298
ssg72
I198
sg73
(dp299
I193
S'        if not isinstance(field_type, str) or value is None:'
p300
sI194
S'            return value'
p301
sI195
S"        elif field_type == 'blob' and not blob_decode:"
p302
sI196
S'            return value'
p303
sI197
S'        else:'
p304
sI198
S'            return self.parser.parse(value, field_itype, field_type)'
p305
sI199
S''
sI200
S'    def _add_operators_to_parsed_row(self, rid, table, row):'
p306
sI201
S'        for key, record_operator in iteritems(self.db.record_operators):'
p307
sI202
S'            setattr(row, key, record_operator(row, table, rid))'
p308
ssg85
S"(self=<pydal.adapters.sqlite.SQLite object>, value=2, field_itype='list:reference', field_type='list:reference category', blob_decode=True)"
p309
sg87
S'parse_value'
p310
sa(dp311
g64
S'E:\\Studium\\SoSe2018\\web2py\\gluon\\packages\\dal\\pydal\\parsers\\__init__.py'
p312
sg66
(dp313
S'field_itype'
p314
S"'list:reference'"
p315
sS'field_type'
p316
S"'list:reference category'"
p317
sS'self'
p318
S'<pydal.parsers.sqlite.SQLiteParser object>'
p319
sS'self.registered'
p320
S'defaultdict(<function <lambda> at 0x06433730>, {...rsers.ParserMethodWrapper object at 0x061E0C90>})'
p321
sS'value'
p322
S'2'
ssg72
I101
sg73
(dp323
I96
S''
sI97
S'    def _default(self, value, field_type):'
p324
sI98
S'        return value'
p325
sI99
S''
sI100
S'    def parse(self, value, field_itype, field_type):'
p326
sI101
S'        return self.registered[field_itype](value, field_type)'
p327
sI102
S''
sI103
S''
sI104
S'from .base import BasicParser'
p328
sI105
S'from .sqlite import SQLiteParser'
p329
ssg85
S"(self=<pydal.parsers.sqlite.SQLiteParser object>, value=2, field_itype='list:reference', field_type='list:reference category')"
p330
sg87
g257
sa(dp331
g64
S'E:\\Studium\\SoSe2018\\web2py\\gluon\\packages\\dal\\pydal\\parsers\\__init__.py'
p332
sg66
(dp333
S'field_type'
p334
S"'list:reference category'"
p335
sS'self'
p336
S'<pydal.parsers.ParserMethodWrapper object>'
p337
sS'self.call'
p338
S'<bound method ParserMethodWrapper._call_with_extras of <pydal.parsers.ParserMethodWrapper object>>'
p339
sS'value'
p340
S'2'
ssg72
I76
sg73
(dp341
I71
S''
sI72
S'    def _call(self, value, field_type):'
p342
sI73
S'        return self.f(self.parser, value)'
p343
sI74
S''
sI75
S'    def __call__(self, value, field_type):'
p344
sI76
S'        return self.call(value, field_type)'
p345
sI77
S''
sI78
S''
sI79
S'class Parser(with_metaclass(MetaParser)):'
p346
sI80
S'    def __init__(self, adapter):'
p347
ssg85
S"(self=<pydal.parsers.ParserMethodWrapper object>, value=2, field_type='list:reference category')"
p348
sg87
S'__call__'
p349
sa(dp350
g64
S'E:\\Studium\\SoSe2018\\web2py\\gluon\\packages\\dal\\pydal\\parsers\\__init__.py'
p351
sg66
(dp352
S'self'
p353
S'<pydal.parsers.ParserMethodWrapper object>'
p354
sS'extras'
p355
S"{'field_type': 'list:reference category'}"
p356
sS'self.f'
p357
S'<function _list_references>'
p358
sS'self.parser'
p359
S'<pydal.parsers.sqlite.SQLiteParser object>'
p360
sS'value'
p361
S'2'
ssg72
I70
sg73
(dp362
I65
S'        else:'
p363
sI66
S'            self.call = self._call'
p364
sI67
S''
sI68
S'    def _call_with_extras(self, value, field_type):'
p365
sI69
S'        extras = self.extra(self.parser, field_type)'
p366
sI70
S'        return self.f(self.parser, value, **extras)'
p367
sI71
S''
sI72
S'    def _call(self, value, field_type):'
p368
sI73
S'        return self.f(self.parser, value)'
p369
sI74
S''
ssg85
S"(self=<pydal.parsers.ParserMethodWrapper object>, value=2, field_type='list:reference category')"
p370
sg87
S'_call_with_extras'
p371
sa(dp372
g64
S'E:\\Studium\\SoSe2018\\web2py\\gluon\\packages\\dal\\pydal\\parsers\\base.py'
p373
sg66
(dp374
S'global bar_decode_integer'
p375
S'<function bar_decode_integer>'
p376
sS'value'
p377
S'2'
ssg72
I146
sg73
(dp378
I141
S'    def _list_strings(self, value):'
p379
sI142
S'        return bar_decode_string(value)'
p380
sI143
S''
sI144
S"    @for_type('list:reference')"
p381
sI145
S'    def _list_references(self, value, field_type):'
p382
sI146
S'        value = bar_decode_integer(value)'
p383
sI147
S"        return [self.registered['reference']("
p384
sI148
S'            el, field_type[5:]) for el in value]'
p385
sI149
S''
sI150
S''
ssg85
S"(self=<pydal.parsers.sqlite.SQLiteParser object>, value=2, field_type='list:reference category')"
p386
sg87
S'_list_references'
p387
sa(dp388
g64
S'E:\\Studium\\SoSe2018\\web2py\\gluon\\packages\\dal\\pydal\\helpers\\methods.py'
p389
sg66
(dp390
S'x'
g106
sS'value.split'
p391
g106
sS'value'
p392
S'2'
sS'long'
p393
S"<type 'long'>"
p394
ssg72
I102
sg73
(dp395
I97
S''
sI98
S'def bar_decode_integer(value):'
p396
sI99
S'    long = integer_types[-1]'
p397
sI100
S"    if not hasattr(value, 'split') and hasattr(value, 'read'):"
p398
sI101
S'        value = value.read()'
p399
sI102
S"    return [long(x) for x in value.split('|') if x.strip()]"
p400
sI103
S''
sI104
S''
sI105
S'def bar_decode_string(value):'
p401
sI106
S"    return [x.replace('||', '|') for x in"
p402
ssg85
S'(value=2)'
p403
sg87
S'bar_decode_integer'
p404
sasS'pyver'
p405
S'Python 2.7.9: E:\\Studium\\SoSe2018\\web2py\\web2py.exe (prefix: )'
p406
sS'session'
p407
g59
(S's\x85\n\x00\x00<div><table><tr><td style="font-weight:bold;vertical-align:top;">auth</td><td style="vertical-align:top;">:</td><td><div><table><tr><td style="font-weight:bold;vertical-align:top;">expiration</td><td style="vertical-align:top;">:</td><td><div>3600</div></td></tr><tr><td style="font-weight:bold;vertical-align:top;">hmac_key</td><td style="vertical-align:top;">:</td><td><div>c94505db-5af7-4439-b225-8133577a1cc5</div></td></tr><tr><td style="font-weight:bold;vertical-align:top;">last_visit</td><td style="vertical-align:top;">:</td><td><div>datetime.datetime(2018, 6, 8, 16, 44, 15, 188000)</div></td></tr><tr><td style="font-weight:bold;vertical-align:top;">remember_me</td><td style="vertical-align:top;">:</td><td><div>False</div></td></tr><tr><td style="font-weight:bold;vertical-align:top;">user</td><td style="vertical-align:top;">:</td><td><div><table><tr><td style="font-weight:bold;vertical-align:top;">email</td><td style="vertical-align:top;">:</td><td><div>list.corinna@gmail.com</div></td></tr><tr><td style="font-weight:bold;vertical-align:top;">first_name</td><td style="vertical-align:top;">:</td><td><div></div></td></tr><tr><td style="font-weight:bold;vertical-align:top;">id</td><td style="vertical-align:top;">:</td><td><div>3L</div></td></tr><tr><td style="font-weight:bold;vertical-align:top;">last_name</td><td style="vertical-align:top;">:</td><td><div></div></td></tr><tr><td style="font-weight:bold;vertical-align:top;">registration_id</td><td style="vertical-align:top;">:</td><td><div></div></td></tr><tr><td style="font-weight:bold;vertical-align:top;">registration_key</td><td style="vertical-align:top;">:</td><td><div></div></td></tr><tr><td style="font-weight:bold;vertical-align:top;">reset_password_key</td><td style="vertical-align:top;">:</td><td><div></div></td></tr><tr><td style="font-weight:bold;vertical-align:top;">username</td><td style="vertical-align:top;">:</td><td><div>elyra</div></td></tr></table></div></td></tr><tr><td style="font-weight:bold;vertical-align:top;">user_groups</td><td style="vertical-align:top;">:</td><td><div><table><tr><td style="font-weight:bold;vertical-align:top;">3</td><td style="vertical-align:top;">:</td><td><div>user_3</div></td></tr></table></div></td></tr></table></div></td></tr><tr><td style="font-weight:bold;vertical-align:top;">flash</td><td style="vertical-align:top;">:</td><td><div>None</div></td></tr><tr><td style="font-weight:bold;vertical-align:top;">last_orderby</td><td style="vertical-align:top;">:</td><td><div>None</div></td></tr><tr><td style="font-weight:bold;vertical-align:top;">last_query</td><td style="vertical-align:top;">:</td><td><div>db.recipe.id&gt;0</div></td></tr></table></div>'
tRp408
sS'etype'
p409
S"<type 'exceptions.AttributeError'>"
p410
sS'date'
p411
S'Fri Jun 08 16:46:27 2018'
p412
sS'response'
p413
g59
(S's\xe9\x1d\x00\x00<div><table><tr><td style="font-weight:bold;vertical-align:top;">body</td><td style="vertical-align:top;">:</td><td><div>&lt;cStringIO.StringO object at 0x061D2440&gt;</div></td></tr><tr><td style="font-weight:bold;vertical-align:top;">cookies</td><td style="vertical-align:top;">:</td><td><div><table><tr><td style="font-weight:bold;vertical-align:top;">session_id_cookr</td><td style="vertical-align:top;">:</td><td><div>127.0.0.1-624d3bcf-7f69-4f3a-9fb5-4a0def9a30f2<table><tr><td style="font-weight:bold;vertical-align:top;">comment</td><td style="vertical-align:top;">:</td><td><div></div></td></tr><tr><td style="font-weight:bold;vertical-align:top;">domain</td><td style="vertical-align:top;">:</td><td><div></div></td></tr><tr><td style="font-weight:bold;vertical-align:top;">expires</td><td style="vertical-align:top;">:</td><td><div></div></td></tr><tr><td style="font-weight:bold;vertical-align:top;">httponly</td><td style="vertical-align:top;">:</td><td><div></div></td></tr><tr><td style="font-weight:bold;vertical-align:top;">max-age</td><td style="vertical-align:top;">:</td><td><div></div></td></tr><tr><td style="font-weight:bold;vertical-align:top;">path</td><td style="vertical-align:top;">:</td><td><div>/</div></td></tr><tr><td style="font-weight:bold;vertical-align:top;">secure</td><td style="vertical-align:top;">:</td><td><div></div></td></tr><tr><td style="font-weight:bold;vertical-align:top;">version</td><td style="vertical-align:top;">:</td><td><div></div></td></tr></table></div></td></tr></table></div></td></tr><tr><td style="font-weight:bold;vertical-align:top;">delimiters</td><td style="vertical-align:top;">:</td><td><div><table><tr><td><div>{{</div></td></tr><tr><td><div>}}</div></td></tr></table></div></td></tr><tr><td style="font-weight:bold;vertical-align:top;">files</td><td style="vertical-align:top;">:</td><td><div><table></table></div></td></tr><tr><td style="font-weight:bold;vertical-align:top;">flash</td><td style="vertical-align:top;">:</td><td><div></div></td></tr><tr><td style="font-weight:bold;vertical-align:top;">form_label_separator</td><td style="vertical-align:top;">:</td><td><div></div></td></tr><tr><td style="font-weight:bold;vertical-align:top;">formstyle</td><td style="vertical-align:top;">:</td><td><div>bootstrap4_inline</div></td></tr><tr><td style="font-weight:bold;vertical-align:top;">generic_patterns</td><td style="vertical-align:top;">:</td><td><div><table><tr><td><div>*</div></td></tr></table></div></td></tr><tr><td style="font-weight:bold;vertical-align:top;">google_analytics_id</td><td style="vertical-align:top;">:</td><td><div>None</div></td></tr><tr><td style="font-weight:bold;vertical-align:top;">headers</td><td style="vertical-align:top;">:</td><td><div><table><tr><td style="font-weight:bold;vertical-align:top;">X-Powered-By</td><td style="vertical-align:top;">:</td><td><div>web2py</div></td></tr></table></div></td></tr><tr><td style="font-weight:bold;vertical-align:top;">menu</td><td style="vertical-align:top;">:</td><td><div><table><tr><td><div><table><tr><td><div>design</div></td></tr><tr><td><div>False</div></td></tr><tr><td><div>/admin/default/design/Cookr</div></td></tr></table></div></td></tr><tr><td><div><table><tr><td><div>db</div></td></tr><tr><td><div>False</div></td></tr><tr><td><div>/Cookr/appadmin/index</div></td></tr></table></div></td></tr><tr><td><div><table><tr><td><div>state</div></td></tr><tr><td><div>False</div></td></tr><tr><td><div>/Cookr/appadmin/state</div></td></tr></table></div></td></tr><tr><td><div><table><tr><td><div>cache</div></td></tr><tr><td><div>False</div></td></tr><tr><td><div>/Cookr/appadmin/ccache</div></td></tr></table></div></td></tr></table></div></td></tr><tr><td style="font-weight:bold;vertical-align:top;">meta</td><td style="vertical-align:top;">:</td><td><div><table><tr><td style="font-weight:bold;vertical-align:top;">author</td><td style="vertical-align:top;">:</td><td><div>Your Name &lt;you@example.com&gt;</div></td></tr><tr><td style="font-weight:bold;vertical-align:top;">description</td><td style="vertical-align:top;">:</td><td><div>a cool new app</div></td></tr><tr><td style="font-weight:bold;vertical-align:top;">generator</td><td style="vertical-align:top;">:</td><td><div>Web2py Web Framework</div></td></tr><tr><td style="font-weight:bold;vertical-align:top;">keywords</td><td style="vertical-align:top;">:</td><td><div><table><tr><td><div>web2py</div></td></tr><tr><td><div>python</div></td></tr><tr><td><div>framework</div></td></tr></table></div></td></tr></table></div></td></tr><tr><td style="font-weight:bold;vertical-align:top;">models_to_run</td><td style="vertical-align:top;">:</td><td><div><table><tr><td><div>^\\w+\\.py$</div></td></tr><tr><td><div>^appadmin/\\w+\\.py$</div></td></tr><tr><td><div>^appadmin/update/\\w+\\.py$</div></td></tr></table></div></td></tr><tr><td style="font-weight:bold;vertical-align:top;">postprocessing</td><td style="vertical-align:top;">:</td><td><div><table></table></div></td></tr><tr><td style="font-weight:bold;vertical-align:top;">session_client</td><td style="vertical-align:top;">:</td><td><div>127.0.0.1</div></td></tr><tr><td style="font-weight:bold;vertical-align:top;">session_cookie_compression_level</td><td style="vertical-align:top;">:</td><td><div>None</div></td></tr><tr><td style="font-weight:bold;vertical-align:top;">session_cookie_expires</td><td style="vertical-align:top;">:</td><td><div>None</div></td></tr><tr><td style="font-weight:bold;vertical-align:top;">session_data_name</td><td style="vertical-align:top;">:</td><td><div>session_data_cookr</div></td></tr><tr><td style="font-weight:bold;vertical-align:top;">session_file</td><td style="vertical-align:top;">:</td><td><div>&lt;open file &#x27;E:\\\\Studium\\\\SoSe2018\\\\web2py\\\\applications\\\\Cookr\\\\sessions\\\\129\\\\0f4\\\\127.0.0.1-624d3bcf-7f69-4f3a-9fb5-4a0def9a30f2&#x27;, mode &#x27;rb+&#x27; at 0x066BD338&gt;</div></td></tr><tr><td style="font-weight:bold;vertical-align:top;">session_filename</td><td style="vertical-align:top;">:</td><td><div>E:\\Studium\\SoSe2018\\web2py\\applications\\Cookr\\sessions\\127.0.0.1-624d3bcf-7f69-4f3a-9fb5-4a0def9a30f2</div></td></tr><tr><td style="font-weight:bold;vertical-align:top;">session_hash</td><td style="vertical-align:top;">:</td><td><div>57ed27e2a7be0b22a455986ea8a070f5</div></td></tr><tr><td style="font-weight:bold;vertical-align:top;">session_id</td><td style="vertical-align:top;">:</td><td><div>127.0.0.1-624d3bcf-7f69-4f3a-9fb5-4a0def9a30f2</div></td></tr><tr><td style="font-weight:bold;vertical-align:top;">session_id_name</td><td style="vertical-align:top;">:</td><td><div>session_id_cookr</div></td></tr><tr><td style="font-weight:bold;vertical-align:top;">session_locked</td><td style="vertical-align:top;">:</td><td><div>True</div></td></tr><tr><td style="font-weight:bold;vertical-align:top;">session_masterapp</td><td style="vertical-align:top;">:</td><td><div>Cookr</div></td></tr><tr><td style="font-weight:bold;vertical-align:top;">session_new</td><td style="vertical-align:top;">:</td><td><div>False</div></td></tr><tr><td style="font-weight:bold;vertical-align:top;">session_storage_type</td><td style="vertical-align:top;">:</td><td><div>file</div></td></tr><tr><td style="font-weight:bold;vertical-align:top;">status</td><td style="vertical-align:top;">:</td><td><div>200</div></td></tr><tr><td style="font-weight:bold;vertical-align:top;">subtitle</td><td style="vertical-align:top;">:</td><td><div>Database Administration (appadmin)</div></td></tr><tr><td style="font-weight:bold;vertical-align:top;">view</td><td style="vertical-align:top;">:</td><td><div>appadmin.html</div></td></tr></table></div>'
tRp414
sS'locals'
p415
(dp416
S'value'
p417
S'2'
sS'long'
p418
S"<type 'long'>"
p419
sssS'traceback'
p420
S'Traceback (most recent call last):\n  File "E:\\Studium\\SoSe2018\\web2py\\gluon\\restricted.py", line 219, in restricted\n    exec(ccode, environment)\n  File "E:\\Studium\\SoSe2018\\web2py\\applications\\Cookr\\controllers/appadmin.py", line 696, in <module>\n  File "E:\\Studium\\SoSe2018\\web2py\\gluon\\globals.py", line 419, in <lambda>\n    self._caller = lambda f: f()\n  File "E:\\Studium\\SoSe2018\\web2py\\applications\\Cookr\\controllers/appadmin.py", line 320, in update\n    2)).select().first()\n  File "E:\\Studium\\SoSe2018\\web2py\\gluon\\packages\\dal\\pydal\\objects.py", line 2250, in select\n    return adapter.select(self.query, fields, attributes)\n  File "E:\\Studium\\SoSe2018\\web2py\\gluon\\packages\\dal\\pydal\\adapters\\sqlite.py", line 82, in select\n    return super(SQLite, self).select(query, fields, attributes)\n  File "E:\\Studium\\SoSe2018\\web2py\\gluon\\packages\\dal\\pydal\\adapters\\base.py", line 762, in select\n    return self._select_aux(sql, fields, attributes, colnames)\n  File "E:\\Studium\\SoSe2018\\web2py\\gluon\\packages\\dal\\pydal\\adapters\\base.py", line 741, in _select_aux\n    return processor(rows, fields, colnames, cacheable=cacheable)\n  File "E:\\Studium\\SoSe2018\\web2py\\gluon\\packages\\dal\\pydal\\adapters\\base.py", line 305, in parse\n    for row in rows\n  File "E:\\Studium\\SoSe2018\\web2py\\gluon\\packages\\dal\\pydal\\adapters\\base.py", line 231, in _parse\n    value = self.parse_value(value, fit, ft, blob_decode)\n  File "E:\\Studium\\SoSe2018\\web2py\\gluon\\packages\\dal\\pydal\\adapters\\base.py", line 198, in parse_value\n    return self.parser.parse(value, field_itype, field_type)\n  File "E:\\Studium\\SoSe2018\\web2py\\gluon\\packages\\dal\\pydal\\parsers\\__init__.py", line 101, in parse\n    return self.registered[field_itype](value, field_type)\n  File "E:\\Studium\\SoSe2018\\web2py\\gluon\\packages\\dal\\pydal\\parsers\\__init__.py", line 76, in __call__\n    return self.call(value, field_type)\n  File "E:\\Studium\\SoSe2018\\web2py\\gluon\\packages\\dal\\pydal\\parsers\\__init__.py", line 70, in _call_with_extras\n    return self.f(self.parser, value, **extras)\n  File "E:\\Studium\\SoSe2018\\web2py\\gluon\\packages\\dal\\pydal\\parsers\\base.py", line 146, in _list_references\n    value = bar_decode_integer(value)\n  File "E:\\Studium\\SoSe2018\\web2py\\gluon\\packages\\dal\\pydal\\helpers\\methods.py", line 102, in bar_decode_integer\n    return [long(x) for x in value.split(\'|\') if x.strip()]\nAttributeError: \'int\' object has no attribute \'split\'\n'
p421
s.