(dp1
S'output'
p2
S"<type 'exceptions.AttributeError'> 'Query' object has no attribute 'type'"
p3
sS'layer'
p4
S'C:\\Users\\listc\\Downloads\\web2py_win\\web2py\\applications\\Cookr\\controllers/default.py'
p5
sS'code'
p6
S'<code object <module> at 06E6CEC0, file "C:\\Users\\listc\\Downloads\\web2py_win\\web2py\\applications\\Cookr\\controllers/default.py", line 8>'
p7
sS'snapshot'
p8
(dp9
S'exception'
p10
(dp11
S'__getslice__'
p12
S"<method-wrapper '__getslice__' of exceptions.AttributeError object>"
p13
sS'__str__'
p14
S"<method-wrapper '__str__' of exceptions.AttributeError object>"
p15
sS'__reduce__'
p16
S'<built-in method __reduce__ of exceptions.AttributeError object>'
p17
sS'__dict__'
p18
S'{}'
p19
sS'message'
p20
S'"\'Query\' object has no attribute \'type\'"'
p21
sS'__sizeof__'
p22
S'<built-in method __sizeof__ of exceptions.AttributeError object>'
p23
sS'__init__'
p24
S"<method-wrapper '__init__' of exceptions.AttributeError object>"
p25
sS'__setattr__'
p26
S"<method-wrapper '__setattr__' of exceptions.AttributeError object>"
p27
sS'__reduce_ex__'
p28
S'<built-in method __reduce_ex__ of exceptions.AttributeError object>'
p29
sS'__new__'
p30
S'<built-in method __new__ of type object>'
p31
sS'__format__'
p32
S'<built-in method __format__ of exceptions.AttributeError object>'
p33
sS'__class__'
p34
S"<type 'exceptions.AttributeError'>"
p35
sS'__doc__'
p36
S"'Attribute not found.'"
p37
sS'__getitem__'
p38
S"<method-wrapper '__getitem__' of exceptions.AttributeError object>"
p39
sS'__setstate__'
p40
S'<built-in method __setstate__ of exceptions.AttributeError object>'
p41
sS'__getattribute__'
p42
S"<method-wrapper '__getattribute__' of exceptions.AttributeError object>"
p43
sS'args'
p44
S'("\'Query\' object has no attribute \'type\'",)'
p45
sS'__subclasshook__'
p46
S'<built-in method __subclasshook__ of type object>'
p47
sS'__unicode__'
p48
S'<built-in method __unicode__ of exceptions.AttributeError object>'
p49
sS'__delattr__'
p50
S"<method-wrapper '__delattr__' of exceptions.AttributeError object>"
p51
sS'__repr__'
p52
S"<method-wrapper '__repr__' of exceptions.AttributeError object>"
p53
sS'__hash__'
p54
S"<method-wrapper '__hash__' of exceptions.AttributeError object>"
p55
ssS'evalue'
p56
S"'Query' object has no attribute 'type'"
p57
sS'request'
p58
cgluon.html
XML_unpickle
p59
(S's}_\x00\x00<div><table><tr><td style="font-weight:bold;vertical-align:top;">ajax</td><td style="vertical-align:top;">:</td><td><div>False</div></td></tr><tr><td style="font-weight:bold;vertical-align:top;">application</td><td style="vertical-align:top;">:</td><td><div>Cookr</div></td></tr><tr><td style="font-weight:bold;vertical-align:top;">args</td><td style="vertical-align:top;">:</td><td><div><table><tr><td><div>4</div></td></tr></table></div></td></tr><tr><td style="font-weight:bold;vertical-align:top;">cid</td><td style="vertical-align:top;">:</td><td><div>None</div></td></tr><tr><td style="font-weight:bold;vertical-align:top;">client</td><td style="vertical-align:top;">:</td><td><div>127.0.0.1</div></td></tr><tr><td style="font-weight:bold;vertical-align:top;">controller</td><td style="vertical-align:top;">:</td><td><div>default</div></td></tr><tr><td style="font-weight:bold;vertical-align:top;">cookies</td><td style="vertical-align:top;">:</td><td><div><table><tr><td style="font-weight:bold;vertical-align:top;">session_id_admin</td><td style="vertical-align:top;">:</td><td><div>127.0.0.1-cd437d29-8953-4b18-8292-86a678008826<table><tr><td style="font-weight:bold;vertical-align:top;">comment</td><td style="vertical-align:top;">:</td><td><div></div></td></tr><tr><td style="font-weight:bold;vertical-align:top;">domain</td><td style="vertical-align:top;">:</td><td><div></div></td></tr><tr><td style="font-weight:bold;vertical-align:top;">expires</td><td style="vertical-align:top;">:</td><td><div></div></td></tr><tr><td style="font-weight:bold;vertical-align:top;">httponly</td><td style="vertical-align:top;">:</td><td><div></div></td></tr><tr><td style="font-weight:bold;vertical-align:top;">max-age</td><td style="vertical-align:top;">:</td><td><div></div></td></tr><tr><td style="font-weight:bold;vertical-align:top;">path</td><td style="vertical-align:top;">:</td><td><div></div></td></tr><tr><td style="font-weight:bold;vertical-align:top;">secure</td><td style="vertical-align:top;">:</td><td><div></div></td></tr><tr><td style="font-weight:bold;vertical-align:top;">version</td><td style="vertical-align:top;">:</td><td><div></div></td></tr></table></div></td></tr><tr><td style="font-weight:bold;vertical-align:top;">session_id_cookr</td><td style="vertical-align:top;">:</td><td><div>127.0.0.1-0aae0156-8093-442c-93ae-c285cd71f438<table><tr><td style="font-weight:bold;vertical-align:top;">comment</td><td style="vertical-align:top;">:</td><td><div></div></td></tr><tr><td style="font-weight:bold;vertical-align:top;">domain</td><td style="vertical-align:top;">:</td><td><div></div></td></tr><tr><td style="font-weight:bold;vertical-align:top;">expires</td><td style="vertical-align:top;">:</td><td><div></div></td></tr><tr><td style="font-weight:bold;vertical-align:top;">httponly</td><td style="vertical-align:top;">:</td><td><div></div></td></tr><tr><td style="font-weight:bold;vertical-align:top;">max-age</td><td style="vertical-align:top;">:</td><td><div></div></td></tr><tr><td style="font-weight:bold;vertical-align:top;">path</td><td style="vertical-align:top;">:</td><td><div></div></td></tr><tr><td style="font-weight:bold;vertical-align:top;">secure</td><td style="vertical-align:top;">:</td><td><div></div></td></tr><tr><td style="font-weight:bold;vertical-align:top;">version</td><td style="vertical-align:top;">:</td><td><div></div></td></tr></table></div></td></tr><tr><td style="font-weight:bold;vertical-align:top;">session_id_welcome</td><td style="vertical-align:top;">:</td><td><div>127.0.0.1-1025a580-a045-40cb-b839-c7605f577db4<table><tr><td style="font-weight:bold;vertical-align:top;">comment</td><td style="vertical-align:top;">:</td><td><div></div></td></tr><tr><td style="font-weight:bold;vertical-align:top;">domain</td><td style="vertical-align:top;">:</td><td><div></div></td></tr><tr><td style="font-weight:bold;vertical-align:top;">expires</td><td style="vertical-align:top;">:</td><td><div></div></td></tr><tr><td style="font-weight:bold;vertical-align:top;">httponly</td><td style="vertical-align:top;">:</td><td><div></div></td></tr><tr><td style="font-weight:bold;vertical-align:top;">max-age</td><td style="vertical-align:top;">:</td><td><div></div></td></tr><tr><td style="font-weight:bold;vertical-align:top;">path</td><td style="vertical-align:top;">:</td><td><div></div></td></tr><tr><td style="font-weight:bold;vertical-align:top;">secure</td><td style="vertical-align:top;">:</td><td><div></div></td></tr><tr><td style="font-weight:bold;vertical-align:top;">version</td><td style="vertical-align:top;">:</td><td><div></div></td></tr></table></div></td></tr></table></div></td></tr><tr><td style="font-weight:bold;vertical-align:top;">env</td><td style="vertical-align:top;">:</td><td><div><table><tr><td style="font-weight:bold;vertical-align:top;">HTTP_ACCEPT</td><td style="vertical-align:top;">:</td><td><div>text/html,application/xhtml+xml,application/xml;q=0.9,image/webp,image/apng,*/*;q=0.8</div></td></tr><tr><td style="font-weight:bold;vertical-align:top;">HTTP_ACCEPT_ENCODING</td><td style="vertical-align:top;">:</td><td><div>gzip, deflate, br</div></td></tr><tr><td style="font-weight:bold;vertical-align:top;">HTTP_ACCEPT_LANGUAGE</td><td style="vertical-align:top;">:</td><td><div>en-US,en;q=0.9</div></td></tr><tr><td style="font-weight:bold;vertical-align:top;">HTTP_CACHE_CONTROL</td><td style="vertical-align:top;">:</td><td><div>max-age=0</div></td></tr><tr><td style="font-weight:bold;vertical-align:top;">HTTP_CONNECTION</td><td style="vertical-align:top;">:</td><td><div>keep-alive</div></td></tr><tr><td style="font-weight:bold;vertical-align:top;">HTTP_COOKIE</td><td style="vertical-align:top;">:</td><td><div>session_id_welcome=127.0.0.1-1025a580-a045-40cb-b839-c7605f577db4; session_id_admin=127.0.0.1-cd437d29-8953-4b18-8292-86a678008826; session_id_cookr=127.0.0.1-0aae0156-8093-442c-93ae-c285cd71f438</div></td></tr><tr><td style="font-weight:bold;vertical-align:top;">HTTP_DNT</td><td style="vertical-align:top;">:</td><td><div>1</div></td></tr><tr><td style="font-weight:bold;vertical-align:top;">HTTP_HOST</td><td style="vertical-align:top;">:</td><td><div>127.0.0.1:8000</div></td></tr><tr><td style="font-weight:bold;vertical-align:top;">HTTP_UPGRADE_INSECURE_REQUESTS</td><td style="vertical-align:top;">:</td><td><div>1</div></td></tr><tr><td style="font-weight:bold;vertical-align:top;">HTTP_USER_AGENT</td><td style="vertical-align:top;">:</td><td><div>Mozilla/5.0 (Windows NT 10.0; Win64; x64) AppleWebKit/537.36 (KHTML, like Gecko) Chrome/66.0.3359.181 Safari/537.36</div></td></tr><tr><td style="font-weight:bold;vertical-align:top;">PATH_INFO</td><td style="vertical-align:top;">:</td><td><div>/Cookr/default/showRecipe/4</div></td></tr><tr><td style="font-weight:bold;vertical-align:top;">QUERY_STRING</td><td style="vertical-align:top;">:</td><td><div></div></td></tr><tr><td style="font-weight:bold;vertical-align:top;">REMOTE_ADDR</td><td style="vertical-align:top;">:</td><td><div>127.0.0.1</div></td></tr><tr><td style="font-weight:bold;vertical-align:top;">REMOTE_PORT</td><td style="vertical-align:top;">:</td><td><div>50802</div></td></tr><tr><td style="font-weight:bold;vertical-align:top;">REQUEST_METHOD</td><td style="vertical-align:top;">:</td><td><div>GET</div></td></tr><tr><td style="font-weight:bold;vertical-align:top;">SCRIPT_NAME</td><td style="vertical-align:top;">:</td><td><div></div></td></tr><tr><td style="font-weight:bold;vertical-align:top;">SERVER_NAME</td><td style="vertical-align:top;">:</td><td><div>LAPTOP-RO5O265P</div></td></tr><tr><td style="font-weight:bold;vertical-align:top;">SERVER_PORT</td><td style="vertical-align:top;">:</td><td><div>8000</div></td></tr><tr><td style="font-weight:bold;vertical-align:top;">SERVER_PROTOCOL</td><td style="vertical-align:top;">:</td><td><div>HTTP/1.1</div></td></tr><tr><td style="font-weight:bold;vertical-align:top;">SERVER_SOFTWARE</td><td style="vertical-align:top;">:</td><td><div>Rocket 1.2.6</div></td></tr><tr><td style="font-weight:bold;vertical-align:top;">app_folders</td><td style="vertical-align:top;">:</td><td><div>set([&#x27;C:\\\\Users\\\\listc\\\\Downloads\\\\web2py_win\\\\web2py\\\\applications\\\\admin\\\\&#x27;, &#x27;C:\\\\Users\\\\listc\\\\Downloads\\\\web2py_win\\\\web2py\\\\applications\\\\welcome\\\\&#x27;, &#x27;C:\\\\Users\\\\listc\\\\Downloads\\\\web2py_win\\\\web2py\\\\applications\\\\Cookr\\\\&#x27;])</div></td></tr><tr><td style="font-weight:bold;vertical-align:top;">applications_parent</td><td style="vertical-align:top;">:</td><td><div>C:\\Users\\listc\\Downloads\\web2py_win\\web2py</div></td></tr><tr><td style="font-weight:bold;vertical-align:top;">cmd_args</td><td style="vertical-align:top;">:</td><td><div><table></table></div></td></tr><tr><td style="font-weight:bold;vertical-align:top;">cmd_options</td><td style="vertical-align:top;">:</td><td><div>&lt;Values at 0x33f2e90: {&#x27;verbose&#x27;: False, &#x27;ip&#x27;: &#x27;127.0.0.1&#x27;, &#x27;debuglevel&#x27;: 30, &#x27;with_scheduler&#x27;: False, &#x27;shutdown_timeout&#x27;: 5, &#x27;taskbar&#x27;: False, &#x27;with_coverage&#x27;: False, &#x27;pid_filename&#x27;: &#x27;httpserver.pid&#x27;, &#x27;maxthreads&#x27;: None, &#x27;softcron&#x27;: False, &#x27;server_name&#x27;: &#x27;LAPTOP-RO5O265P&#x27;, &#x27;bpython&#x27;: False, &#x27;nogui&#x27;: False, &#x27;port&#x27;: 8000, &#x27;print_errors&#x27;: False, &#x27;extcron&#x27;: False, &#x27;runcron&#x27;: False, &#x27;run_system_tests&#x27;: False, &#x27;test&#x27;: None, &#x27;folder&#x27;: &#x27;C:\\\\Users\\\\listc\\\\Downloads\\\\web2py_win\\\\web2py&#x27;, &#x27;config&#x27;: &#x27;&#x27;, &#x27;minthreads&#x27;: None, &#x27;shell&#x27;: None, &#x27;run&#x27;: &#x27;&#x27;, &#x27;log_filename&#x27;: &#x27;httpserver.log&#x27;, &#x27;profiler_dir&#x27;: None, &#x27;args&#x27;: [&#x27;&#x27;], &#x27;socket_timeout&#x27;: 5, &#x27;ssl_ca_certificate&#x27;: None, &#x27;scheduler&#x27;: None, &#x27;interfaces&#x27;: None, &#x27;ssl_private_key&#x27;: &#x27;&#x27;, &#x27;gae&#x27;: None, &#x27;password&#x27;: &#x27;******&#x27;, &#x27;request_queue_size&#x27;: 5, &#x27;ssl_certificate&#x27;: &#x27;&#x27;, &#x27;cronjob&#x27;: False, &#x27;numthreads&#x27;: None, &#x27;quiet&#x27;: False, &#x27;import_models&#x27;: False, &#x27;timeout&#x27;: 10, &#x27;plain&#x27;: False, &#x27;nobanner&#x27;: False}&gt;</div></td></tr><tr><td style="font-weight:bold;vertical-align:top;">db_sessions</td><td style="vertical-align:top;">:</td><td><div>set([])</div></td></tr><tr><td style="font-weight:bold;vertical-align:top;">debugging</td><td style="vertical-align:top;">:</td><td><div>True</div></td></tr><tr><td style="font-weight:bold;vertical-align:top;">gluon_parent</td><td style="vertical-align:top;">:</td><td><div>C:\\Users\\listc\\Downloads\\web2py_win\\web2py</div></td></tr><tr><td style="font-weight:bold;vertical-align:top;">http_accept</td><td style="vertical-align:top;">:</td><td><div>text/html,application/xhtml+xml,application/xml;q=0.9,image/webp,image/apng,*/*;q=0.8</div></td></tr><tr><td style="font-weight:bold;vertical-align:top;">http_accept_encoding</td><td style="vertical-align:top;">:</td><td><div>gzip, deflate, br</div></td></tr><tr><td style="font-weight:bold;vertical-align:top;">http_accept_language</td><td style="vertical-align:top;">:</td><td><div>en-US,en;q=0.9</div></td></tr><tr><td style="font-weight:bold;vertical-align:top;">http_cache_control</td><td style="vertical-align:top;">:</td><td><div>max-age=0</div></td></tr><tr><td style="font-weight:bold;vertical-align:top;">http_connection</td><td style="vertical-align:top;">:</td><td><div>keep-alive</div></td></tr><tr><td style="font-weight:bold;vertical-align:top;">http_cookie</td><td style="vertical-align:top;">:</td><td><div>session_id_welcome=127.0.0.1-1025a580-a045-40cb-b839-c7605f577db4; session_id_admin=127.0.0.1-cd437d29-8953-4b18-8292-86a678008826; session_id_cookr=127.0.0.1-0aae0156-8093-442c-93ae-c285cd71f438</div></td></tr><tr><td style="font-weight:bold;vertical-align:top;">http_dnt</td><td style="vertical-align:top;">:</td><td><div>1</div></td></tr><tr><td style="font-weight:bold;vertical-align:top;">http_host</td><td style="vertical-align:top;">:</td><td><div>127.0.0.1:8000</div></td></tr><tr><td style="font-weight:bold;vertical-align:top;">http_upgrade_insecure_requests</td><td style="vertical-align:top;">:</td><td><div>1</div></td></tr><tr><td style="font-weight:bold;vertical-align:top;">http_user_agent</td><td style="vertical-align:top;">:</td><td><div>Mozilla/5.0 (Windows NT 10.0; Win64; x64) AppleWebKit/537.36 (KHTML, like Gecko) Chrome/66.0.3359.181 Safari/537.36</div></td></tr><tr><td style="font-weight:bold;vertical-align:top;">is_jython</td><td style="vertical-align:top;">:</td><td><div>False</div></td></tr><tr><td style="font-weight:bold;vertical-align:top;">is_py2</td><td style="vertical-align:top;">:</td><td><div>True</div></td></tr><tr><td style="font-weight:bold;vertical-align:top;">is_pypy</td><td style="vertical-align:top;">:</td><td><div>False</div></td></tr><tr><td style="font-weight:bold;vertical-align:top;">is_source</td><td style="vertical-align:top;">:</td><td><div>False</div></td></tr><tr><td style="font-weight:bold;vertical-align:top;">local_hosts</td><td style="vertical-align:top;">:</td><td><div><table><tr><td><div>fe80::642f:b21f:fdec:c40a%8</div></td></tr><tr><td><div>192.168.178.23</div></td></tr><tr><td><div>::ffff:127.0.0.1</div></td></tr><tr><td><div>::1</div></td></tr><tr><td><div>LAPTOP-RO5O265P.fritz.box</div></td></tr><tr><td><div>LAPTOP-RO5O265P</div></td></tr><tr><td><div>127.0.0.1</div></td></tr></table></div></td></tr><tr><td style="font-weight:bold;vertical-align:top;">path_info</td><td style="vertical-align:top;">:</td><td><div>/Cookr/default/showRecipe/4</div></td></tr><tr><td style="font-weight:bold;vertical-align:top;">query_string</td><td style="vertical-align:top;">:</td><td><div></div></td></tr><tr><td style="font-weight:bold;vertical-align:top;">remote_addr</td><td style="vertical-align:top;">:</td><td><div>127.0.0.1</div></td></tr><tr><td style="font-weight:bold;vertical-align:top;">remote_port</td><td style="vertical-align:top;">:</td><td><div>50802</div></td></tr><tr><td style="font-weight:bold;vertical-align:top;">request_method</td><td style="vertical-align:top;">:</td><td><div>GET</div></td></tr><tr><td style="font-weight:bold;vertical-align:top;">request_uri</td><td style="vertical-align:top;">:</td><td><div>/Cookr/default/showRecipe/4</div></td></tr><tr><td style="font-weight:bold;vertical-align:top;">script_name</td><td style="vertical-align:top;">:</td><td><div></div></td></tr><tr><td style="font-weight:bold;vertical-align:top;">server_name</td><td style="vertical-align:top;">:</td><td><div>LAPTOP-RO5O265P</div></td></tr><tr><td style="font-weight:bold;vertical-align:top;">server_port</td><td style="vertical-align:top;">:</td><td><div>8000</div></td></tr><tr><td style="font-weight:bold;vertical-align:top;">server_protocol</td><td style="vertical-align:top;">:</td><td><div>HTTP/1.1</div></td></tr><tr><td style="font-weight:bold;vertical-align:top;">server_software</td><td style="vertical-align:top;">:</td><td><div>Rocket 1.2.6</div></td></tr><tr><td style="font-weight:bold;vertical-align:top;">web2py_path</td><td style="vertical-align:top;">:</td><td><div>C:\\Users\\listc\\Downloads\\web2py_win\\web2py</div></td></tr><tr><td style="font-weight:bold;vertical-align:top;">web2py_version</td><td style="vertical-align:top;">:</td><td><div>2.16.1-stable+timestamp.2017.11.14.05.54.25</div></td></tr><tr><td style="font-weight:bold;vertical-align:top;">wsgi.errors</td><td style="vertical-align:top;">:</td><td><div>&lt;open file &#x27;&lt;stderr&gt;&#x27;, mode &#x27;w&#x27; at 0x0260D0D0&gt;</div></td></tr><tr><td style="font-weight:bold;vertical-align:top;">wsgi.file_wrapper</td><td style="vertical-align:top;">:</td><td><div>&lt;class wsgiref.util.FileWrapper at 0x0332DB20&gt;</div></td></tr><tr><td style="font-weight:bold;vertical-align:top;">wsgi.input</td><td style="vertical-align:top;">:</td><td><div>&lt;socket._fileobject object at 0x048ACB70&gt;</div></td></tr><tr><td style="font-weight:bold;vertical-align:top;">wsgi.multiprocess</td><td style="vertical-align:top;">:</td><td><div>False</div></td></tr><tr><td style="font-weight:bold;vertical-align:top;">wsgi.multithread</td><td style="vertical-align:top;">:</td><td><div>True</div></td></tr><tr><td style="font-weight:bold;vertical-align:top;">wsgi.run_once</td><td style="vertical-align:top;">:</td><td><div>False</div></td></tr><tr><td style="font-weight:bold;vertical-align:top;">wsgi.url_scheme</td><td style="vertical-align:top;">:</td><td><div>http</div></td></tr><tr><td style="font-weight:bold;vertical-align:top;">wsgi.version</td><td style="vertical-align:top;">:</td><td><div><table><tr><td><div>1</div></td></tr><tr><td><div>0</div></td></tr></table></div></td></tr><tr><td style="font-weight:bold;vertical-align:top;">wsgi_errors</td><td style="vertical-align:top;">:</td><td><div>&lt;open file &#x27;&lt;stderr&gt;&#x27;, mode &#x27;w&#x27; at 0x0260D0D0&gt;</div></td></tr><tr><td style="font-weight:bold;vertical-align:top;">wsgi_file_wrapper</td><td style="vertical-align:top;">:</td><td><div>&lt;class wsgiref.util.FileWrapper at 0x0332DB20&gt;</div></td></tr><tr><td style="font-weight:bold;vertical-align:top;">wsgi_input</td><td style="vertical-align:top;">:</td><td><div>&lt;socket._fileobject object at 0x048ACB70&gt;</div></td></tr><tr><td style="font-weight:bold;vertical-align:top;">wsgi_multiprocess</td><td style="vertical-align:top;">:</td><td><div>False</div></td></tr><tr><td style="font-weight:bold;vertical-align:top;">wsgi_multithread</td><td style="vertical-align:top;">:</td><td><div>True</div></td></tr><tr><td style="font-weight:bold;vertical-align:top;">wsgi_run_once</td><td style="vertical-align:top;">:</td><td><div>False</div></td></tr><tr><td style="font-weight:bold;vertical-align:top;">wsgi_url_scheme</td><td style="vertical-align:top;">:</td><td><div>http</div></td></tr><tr><td style="font-weight:bold;vertical-align:top;">wsgi_version</td><td style="vertical-align:top;">:</td><td><div><table><tr><td><div>1</div></td></tr><tr><td><div>0</div></td></tr></table></div></td></tr></table></div></td></tr><tr><td style="font-weight:bold;vertical-align:top;">extension</td><td style="vertical-align:top;">:</td><td><div>html</div></td></tr><tr><td style="font-weight:bold;vertical-align:top;">folder</td><td style="vertical-align:top;">:</td><td><div>C:\\Users\\listc\\Downloads\\web2py_win\\web2py\\applications\\Cookr\\</div></td></tr><tr><td style="font-weight:bold;vertical-align:top;">function</td><td style="vertical-align:top;">:</td><td><div>showRecipe</div></td></tr><tr><td style="font-weight:bold;vertical-align:top;">global_settings</td><td style="vertical-align:top;">:</td><td><div><table><tr><td style="font-weight:bold;vertical-align:top;">app_folders</td><td style="vertical-align:top;">:</td><td><div>set([&#x27;C:\\\\Users\\\\listc\\\\Downloads\\\\web2py_win\\\\web2py\\\\applications\\\\admin\\\\&#x27;, &#x27;C:\\\\Users\\\\listc\\\\Downloads\\\\web2py_win\\\\web2py\\\\applications\\\\welcome\\\\&#x27;, &#x27;C:\\\\Users\\\\listc\\\\Downloads\\\\web2py_win\\\\web2py\\\\applications\\\\Cookr\\\\&#x27;])</div></td></tr><tr><td style="font-weight:bold;vertical-align:top;">applications_parent</td><td style="vertical-align:top;">:</td><td><div>C:\\Users\\listc\\Downloads\\web2py_win\\web2py</div></td></tr><tr><td style="font-weight:bold;vertical-align:top;">cmd_args</td><td style="vertical-align:top;">:</td><td><div><table></table></div></td></tr><tr><td style="font-weight:bold;vertical-align:top;">cmd_options</td><td style="vertical-align:top;">:</td><td><div>&lt;Values at 0x33f2e90: {&#x27;verbose&#x27;: False, &#x27;ip&#x27;: &#x27;127.0.0.1&#x27;, &#x27;debuglevel&#x27;: 30, &#x27;with_scheduler&#x27;: False, &#x27;shutdown_timeout&#x27;: 5, &#x27;taskbar&#x27;: False, &#x27;with_coverage&#x27;: False, &#x27;pid_filename&#x27;: &#x27;httpserver.pid&#x27;, &#x27;maxthreads&#x27;: None, &#x27;softcron&#x27;: False, &#x27;server_name&#x27;: &#x27;LAPTOP-RO5O265P&#x27;, &#x27;bpython&#x27;: False, &#x27;nogui&#x27;: False, &#x27;port&#x27;: 8000, &#x27;print_errors&#x27;: False, &#x27;extcron&#x27;: False, &#x27;runcron&#x27;: False, &#x27;run_system_tests&#x27;: False, &#x27;test&#x27;: None, &#x27;folder&#x27;: &#x27;C:\\\\Users\\\\listc\\\\Downloads\\\\web2py_win\\\\web2py&#x27;, &#x27;config&#x27;: &#x27;&#x27;, &#x27;minthreads&#x27;: None, &#x27;shell&#x27;: None, &#x27;run&#x27;: &#x27;&#x27;, &#x27;log_filename&#x27;: &#x27;httpserver.log&#x27;, &#x27;profiler_dir&#x27;: None, &#x27;args&#x27;: [&#x27;&#x27;], &#x27;socket_timeout&#x27;: 5, &#x27;ssl_ca_certificate&#x27;: None, &#x27;scheduler&#x27;: None, &#x27;interfaces&#x27;: None, &#x27;ssl_private_key&#x27;: &#x27;&#x27;, &#x27;gae&#x27;: None, &#x27;password&#x27;: &#x27;******&#x27;, &#x27;request_queue_size&#x27;: 5, &#x27;ssl_certificate&#x27;: &#x27;&#x27;, &#x27;cronjob&#x27;: False, &#x27;numthreads&#x27;: None, &#x27;quiet&#x27;: False, &#x27;import_models&#x27;: False, &#x27;timeout&#x27;: 10, &#x27;plain&#x27;: False, &#x27;nobanner&#x27;: False}&gt;</div></td></tr><tr><td style="font-weight:bold;vertical-align:top;">db_sessions</td><td style="vertical-align:top;">:</td><td><div>set([])</div></td></tr><tr><td style="font-weight:bold;vertical-align:top;">debugging</td><td style="vertical-align:top;">:</td><td><div>True</div></td></tr><tr><td style="font-weight:bold;vertical-align:top;">gluon_parent</td><td style="vertical-align:top;">:</td><td><div>C:\\Users\\listc\\Downloads\\web2py_win\\web2py</div></td></tr><tr><td style="font-weight:bold;vertical-align:top;">is_jython</td><td style="vertical-align:top;">:</td><td><div>False</div></td></tr><tr><td style="font-weight:bold;vertical-align:top;">is_py2</td><td style="vertical-align:top;">:</td><td><div>True</div></td></tr><tr><td style="font-weight:bold;vertical-align:top;">is_pypy</td><td style="vertical-align:top;">:</td><td><div>False</div></td></tr><tr><td style="font-weight:bold;vertical-align:top;">is_source</td><td style="vertical-align:top;">:</td><td><div>False</div></td></tr><tr><td style="font-weight:bold;vertical-align:top;">local_hosts</td><td style="vertical-align:top;">:</td><td><div><table><tr><td><div>fe80::642f:b21f:fdec:c40a%8</div></td></tr><tr><td><div>192.168.178.23</div></td></tr><tr><td><div>::ffff:127.0.0.1</div></td></tr><tr><td><div>::1</div></td></tr><tr><td><div>LAPTOP-RO5O265P.fritz.box</div></td></tr><tr><td><div>LAPTOP-RO5O265P</div></td></tr><tr><td><div>127.0.0.1</div></td></tr></table></div></td></tr><tr><td style="font-weight:bold;vertical-align:top;">web2py_version</td><td style="vertical-align:top;">:</td><td><div>2.16.1-stable+timestamp.2017.11.14.05.54.25</div></td></tr></table></div></td></tr><tr><td style="font-weight:bold;vertical-align:top;">is_https</td><td style="vertical-align:top;">:</td><td><div>False</div></td></tr><tr><td style="font-weight:bold;vertical-align:top;">is_local</td><td style="vertical-align:top;">:</td><td><div>True</div></td></tr><tr><td style="font-weight:bold;vertical-align:top;">is_restful</td><td style="vertical-align:top;">:</td><td><div>False</div></td></tr><tr><td style="font-weight:bold;vertical-align:top;">is_scheduler</td><td style="vertical-align:top;">:</td><td><div>False</div></td></tr><tr><td style="font-weight:bold;vertical-align:top;">is_shell</td><td style="vertical-align:top;">:</td><td><div>False</div></td></tr><tr><td style="font-weight:bold;vertical-align:top;">now</td><td style="vertical-align:top;">:</td><td><div>datetime.datetime(2018, 6, 7, 13, 15, 11, 812000)</div></td></tr><tr><td style="font-weight:bold;vertical-align:top;">raw_args</td><td style="vertical-align:top;">:</td><td><div>4</div></td></tr><tr><td style="font-weight:bold;vertical-align:top;">raw_extension</td><td style="vertical-align:top;">:</td><td><div>None</div></td></tr><tr><td style="font-weight:bold;vertical-align:top;">url</td><td style="vertical-align:top;">:</td><td><div>/Cookr/default/showRecipe/4</div></td></tr><tr><td style="font-weight:bold;vertical-align:top;">utcnow</td><td style="vertical-align:top;">:</td><td><div>datetime.datetime(2018, 6, 7, 11, 15, 11, 812000)</div></td></tr><tr><td style="font-weight:bold;vertical-align:top;">wsgi</td><td style="vertical-align:top;">:</td><td><div>&lt;gluon.main.LazyWSGI object at 0x048CDBD0&gt;</div></td></tr></table></div>'
tRp60
sS'frames'
p61
(lp62
(dp63
S'file'
p64
S'C:\\Users\\listc\\Downloads\\web2py_win\\web2py\\gluon\\restricted.py'
p65
sS'dump'
p66
(dp67
S'environment'
p68
S"{'A': <class 'gluon.html.A'>, 'ANY_OF': <class 'gluon.validators.ANY_OF'>, 'ASSIGNJS': <function ASSIGNJS>, 'AppConfig': <function AppConfig>, 'Auth': <class 'gluon.tools.Auth'>, 'B': <class 'gluon.html.B'>, 'BEAUTIFY': <class 'gluon.html.BEAUTIFY'>, 'BODY': <class 'gluon.html.BODY'>, 'BR': <class 'gluon.html.BR'>, 'BUTTON': <class 'gluon.html.BUTTON'>, ...}"
p69
sS'ccode'
p70
S'<code object <module> at 06E6CEC0, file "C:\\User...plications\\Cookr\\controllers/default.py", line 8>'
p71
ssS'lnum'
p72
I219
sS'lines'
p73
(dp74
I214
S'    if environment is None:'
p75
sI215
S'        environment = {}'
p76
sI216
S"    environment['__file__'] = layer"
p77
sI217
S"    environment['__name__'] = '__restricted__'"
p78
sI218
S'    try:'
p79
sI219
S'        exec(ccode, environment)'
p80
sI220
S'    except HTTP:'
p81
sI221
S'        raise'
p82
sI222
S'    except RestrictedError:'
p83
sI223
S'        # do not encapsulate (obfuscate) the original RestrictedError'
p84
ssS'call'
p85
S'(ccode=<code object <module> at 06E6CEC0, file "C:\\User...plications\\Cookr\\controllers/default.py", line 8>, environment={\'A\': <class \'gluon.html.A\'>, \'ANY_OF\': <class \'gluon.validators.ANY_OF\'>, \'ASSIGNJS\': <function ASSIGNJS>, \'AppConfig\': <function AppConfig>, \'Auth\': <class \'gluon.tools.Auth\'>, \'B\': <class \'gluon.html.B\'>, \'BEAUTIFY\': <class \'gluon.html.BEAUTIFY\'>, \'BODY\': <class \'gluon.html.BODY\'>, \'BR\': <class \'gluon.html.BR\'>, \'BUTTON\': <class \'gluon.html.BUTTON\'>, ...}, layer=r\'C:\\Users\\listc\\Downloads\\web2py_win\\web2py\\applications\\Cookr\\controllers/default.py\', scode=<code object <module> at 06E6CEC0, file "C:\\User...plications\\Cookr\\controllers/default.py", line 8>)'
p86
sS'func'
p87
S'restricted'
p88
sa(dp89
g64
S'C:\\Users\\listc\\Downloads\\web2py_win\\web2py\\applications\\Cookr\\controllers\\default.py'
p90
sg66
(dp91
sg72
I89
sg73
(dp92
I78
S'    return dict(form=auth())'
p93
sI79
S''
sI80
S'# ---- action to server uploaded static content (required) ---'
p94
sI81
S'@cache.action()'
p95
sI82
S'def download():'
p96
sI83
S'    """'
p97
sI84
S'    allows downloading of uploaded files'
p98
sI85
S'    http://..../[app]/default/download/[filename]'
p99
sI86
S'    """'
p100
sI87
S'    return response.download(request, db)'
p101
ssg85
S'()'
p102
sg87
S'<module>'
p103
sa(dp104
g64
S'C:\\Users\\listc\\Downloads\\web2py_win\\web2py\\gluon\\globals.py'
p105
sg66
(dp106
S'self'
p107
S'undefined'
p108
sS'f'
S'<function showRecipe>'
p109
ssg72
I419
sg73
(dp110
I416
S'        self.menu = []             # used by the default view layout'
p111
sI417
S'        self.files = []            # used by web2py_ajax.html'
p112
sI418
S'        self._vars = None'
p113
sI419
S'        self._caller = lambda f: f()'
p114
sI420
S'        self._view_environment = None'
p115
sI421
S'        self._custom_commit = None'
p116
sI422
S'        self._custom_rollback = None'
p117
sI423
S"        self.generic_patterns = ['*']"
p118
sI414
S"        self.flash = ''            # used by the default view layout"
p119
sI415
S'        self.meta = Storage()      # used by web2py_ajax.html'
p120
ssg85
S'(f=<function showRecipe>)'
p121
sg87
S'<lambda>'
p122
sa(dp123
g64
S'C:\\Users\\listc\\Downloads\\web2py_win\\web2py\\applications\\Cookr\\controllers\\default.py'
p124
sg66
(dp125
S'db.recipeContainsItem'
p126
S'<Table recipeContainsItem (id, recipe, item)>'
p127
sS'recipe.id'
p128
S'4L'
p129
sS'items'
p130
g108
sS'recipe'
p131
S'<Row {\'recipe_step\': <Set ("recipe_step"."recipe...tetime.date(2018, 6, 7), \'id\': 4L, \'origin\': 2L}>'
p132
sS').select'
p133
g108
sS'db.recipeContainsItem.recipe'
p134
S'<pydal.objects.Field object>'
p135
sS'global db'
p136
S'<DAL uri="sqlite://storage.sqlite">'
p137
ssg72
I33
sg73
(dp138
I32
S'    recipe = db.recipe(request.args(0, cast=int))'
p139
sI33
S'    items = db(db.recipeContainsItem).select(db.recipeContainsItem.recipe == recipe.id)'
p140
sI34
S'    return locals()'
p141
sI35
S''
sI36
S'@auth.requires_login()'
p142
sI37
S'def manageRecipes():'
p143
sI28
S'    ingredient = db.ingredient(request.args(0, cast=int))'
p144
sI29
S'    return locals()'
p145
sI30
S''
sI31
S'def showRecipe():'
p146
ssg85
S'()'
p147
sg87
S'showRecipe'
p148
sa(dp149
g64
S'C:\\Users\\listc\\Downloads\\web2py_win\\web2py\\gluon\\packages\\dal\\pydal\\objects.py'
p150
sg66
(dp151
S'self.query'
p152
S'<Query ("recipeContainsItem"."id" IS NOT NULL)>'
p153
sS'adapter.select'
p154
S'<bound method SQLite.select of <pydal.adapters.sqlite.SQLite object>>'
p155
sS'fields'
p156
S'[<Query ("recipeContainsItem"."recipe" = 4)>]'
p157
sS'adapter'
p158
S'<pydal.adapters.sqlite.SQLite object>'
p159
sS'attributes'
p160
g19
sS'self'
p161
S'<Set ("recipeContainsItem"."id" IS NOT NULL)>'
p162
ssg72
I2250
sg73
(dp163
I2245
S"                                    attributes.get('join', None),"
p164
sI2246
S"                                    attributes.get('left', None),"
p165
sI2247
S"                                    attributes.get('orderby', None),"
p166
sI2248
S"                                    attributes.get('groupby', None))"
p167
sI2249
S'        fields = adapter.expand_all(fields, tablenames)'
p168
sI2250
S'        return adapter.select(self.query, fields, attributes)'
p169
sI2251
S''
sI2252
S'    def iterselect(self, *fields, **attributes):'
p170
sI2253
S'        adapter = self.db._adapter'
p171
sI2254
S'        tablenames = adapter.tables(self.query,'
p172
ssg85
S'(self=<Set ("recipeContainsItem"."id" IS NOT NULL)>, *fields=[<Query ("recipeContainsItem"."recipe" = 4)>], **attributes={})'
p173
sg87
S'select'
p174
sa(dp175
g64
S'C:\\Users\\listc\\Downloads\\web2py_win\\web2py\\gluon\\packages\\dal\\pydal\\adapters\\sqlite.py'
p176
sg66
(dp177
S'fields'
p178
S'[<Query ("recipeContainsItem"."recipe" = 4)>]'
p179
sS'self'
p180
S'<pydal.adapters.sqlite.SQLite object>'
p181
sS').select'
p182
S'<bound method SQLite.select of <pydal.adapters.sqlite.SQLite object>>'
p183
sS'attributes'
p184
g19
sS'query'
p185
S'<Query ("recipeContainsItem"."id" IS NOT NULL)>'
p186
sS'builtinsuper'
p187
S"<type 'super'>"
p188
sS'global SQLite'
p189
S"<class 'pydal.adapters.sqlite.SQLite'>"
p190
ssg72
I82
sg73
(dp191
I77
S"            self.execute('PRAGMA foreign_keys=ON;')"
p192
sI78
S''
sI79
S'    def select(self, query, fields, attributes):'
p193
sI80
S"        if attributes.get('for_update', False) and 'cache' not in attributes:"
p194
sI81
S"            self.execute('BEGIN IMMEDIATE TRANSACTION;')"
p195
sI82
S'        return super(SQLite, self).select(query, fields, attributes)'
p196
sI83
S''
sI84
S'    def delete(self, table, query):'
p197
sI85
S'        db = self.db'
p198
sI86
S'        deleted = [x[table._id.name] for x in db(query).select(table._id)]'
p199
ssg85
S'(self=<pydal.adapters.sqlite.SQLite object>, query=<Query ("recipeContainsItem"."id" IS NOT NULL)>, fields=[<Query ("recipeContainsItem"."recipe" = 4)>], attributes={})'
p200
sg87
g174
sa(dp201
g64
S'C:\\Users\\listc\\Downloads\\web2py_win\\web2py\\gluon\\packages\\dal\\pydal\\adapters\\base.py'
p202
sg66
(dp203
S'fields'
p204
S'[<Query ("recipeContainsItem"."recipe" = 4)>]'
p205
sS'self'
p206
S'<pydal.adapters.sqlite.SQLite object>'
p207
sS'self._select_wcols'
p208
S'<bound method SQLite._select_wcols of <pydal.adapters.sqlite.SQLite object>>'
p209
sS'sql'
p210
g108
sS'query'
p211
S'<Query ("recipeContainsItem"."id" IS NOT NULL)>'
p212
sS'colnames'
p213
g108
sS'attributes'
p214
g19
ssg72
I757
sg73
(dp215
I752
S'            time_expire)'
p216
sI753
S'        ret._restore_fields(fields)'
p217
sI754
S'        return ret'
p218
sI755
S''
sI756
S'    def select(self, query, fields, attributes):'
p219
sI757
S'        colnames, sql = self._select_wcols(query, fields, **attributes)'
p220
sI758
S"        cache = attributes.get('cache', None)"
p221
sI759
S"        if cache and attributes.get('cacheable', False):"
p222
sI760
S'            return self._cached_select('
p223
sI761
S'                cache, sql, fields, attributes, colnames)'
p224
ssg85
S'(self=<pydal.adapters.sqlite.SQLite object>, query=<Query ("recipeContainsItem"."id" IS NOT NULL)>, fields=[<Query ("recipeContainsItem"."recipe" = 4)>], attributes={})'
p225
sg87
g174
sa(dp226
g64
S'C:\\Users\\listc\\Downloads\\web2py_win\\web2py\\gluon\\packages\\dal\\pydal\\adapters\\base.py'
p227
sg66
(dp228
S'x'
S'<Query ("recipeContainsItem"."recipe" = 4)>'
p229
sS'fields'
p230
S'[<Query ("recipeContainsItem"."recipe" = 4)>]'
p231
sS'self'
p232
S'<pydal.adapters.sqlite.SQLite object>'
p233
sS'query_env'
p234
S"{'current_scope': ['recipeContainsItem'], 'parent_scope': []}"
p235
sS'self._geoexpand'
p236
S'<bound method SQLite._geoexpand of <pydal.adapters.sqlite.SQLite object>>'
p237
sS'sql_fields'
p238
g108
ssg72
I632
sg73
(dp239
I627
S'        current_scope = outer_scoped + list(tablemap)'
p240
sI628
S'        query_env = dict(current_scope=current_scope,'
p241
sI629
S'            parent_scope=outer_scoped)'
p242
sI630
S'        #: prepare columns and expand fields'
p243
sI631
S'        colnames = [self._colexpand(x, query_env) for x in fields]'
p244
sI632
S"        sql_fields = ', '.join(self._geoexpand(x, query_env) for x in fields)"
p245
sI633
S'        table_alias = lambda name: tablemap[name].query_name(outer_scoped)[0]'
p246
sI634
S'        if join and not left:'
p247
sI635
S'            cross_joins = iexcluded + list(itables_to_merge)'
p248
sI636
S'            tokens = [table_alias(cross_joins[0])]'
p249
ssg85
S'(self=<pydal.adapters.sqlite.SQLite object>, query=<Query ("recipeContainsItem"."id" IS NOT NULL)>, fields=[<Query ("recipeContainsItem"."recipe" = 4)>], left=False, join=False, distinct=False, orderby=False, groupby=False, having=False, limitby=False, orderby_on_limitby=True, for_update=False, outer_scoped=[], required=None, cache=None, cacheable=None, processor=None)'
p250
sg87
S'_select_wcols'
p251
sa(dp252
g64
S'C:\\Users\\listc\\Downloads\\web2py_win\\web2py\\gluon\\packages\\dal\\pydal\\adapters\\base.py'
p253
sg66
(dp254
S'x'
S'<Query ("recipeContainsItem"."recipe" = 4)>'
p255
sS'fields'
p256
g108
sS'self'
p257
S'<pydal.adapters.sqlite.SQLite object>'
p258
sS'query_env'
p259
S"{'current_scope': ['recipeContainsItem'], 'parent_scope': []}"
p260
sS'self._geoexpand'
p261
S'<bound method SQLite._geoexpand of <pydal.adapters.sqlite.SQLite object>>'
p262
sS'sql_fields'
p263
g108
ssg72
I632
sg73
(dp264
I627
S'        current_scope = outer_scoped + list(tablemap)'
p265
sI628
S'        query_env = dict(current_scope=current_scope,'
p266
sI629
S'            parent_scope=outer_scoped)'
p267
sI630
S'        #: prepare columns and expand fields'
p268
sI631
S'        colnames = [self._colexpand(x, query_env) for x in fields]'
p269
sI632
S"        sql_fields = ', '.join(self._geoexpand(x, query_env) for x in fields)"
p270
sI633
S'        table_alias = lambda name: tablemap[name].query_name(outer_scoped)[0]'
p271
sI634
S'        if join and not left:'
p272
sI635
S'            cross_joins = iexcluded + list(itables_to_merge)'
p273
sI636
S'            tokens = [table_alias(cross_joins[0])]'
p274
ssg85
S'((x=<Query ("recipeContainsItem"."recipe" = 4)>,))'
p275
sg87
S'<genexpr>'
p276
sa(dp277
g64
S'C:\\Users\\listc\\Downloads\\web2py_win\\web2py\\gluon\\packages\\dal\\pydal\\adapters\\base.py'
p278
sg66
(dp279
S'field.type'
p280
g108
sS'builtinisinstance'
p281
S'<built-in function isinstance>'
p282
sS'builtinstr'
p283
S"<type 'str'>"
p284
sS'global Field'
p285
S"<class 'pydal.objects.Field'>"
p286
sS'field'
p287
S'<Query ("recipeContainsItem"."recipe" = 4)>'
p288
ssg72
I550
sg73
(dp289
I545
S''
sI546
S'    def _colexpand(self, field, query_env):'
p290
sI547
S'        return self.expand(field, colnames=True, query_env=query_env)'
p291
sI548
S''
sI549
S'    def _geoexpand(self, field, query_env):'
p292
sI550
S"        if isinstance(field.type, str) and field.type.startswith('geo') and \\"
p293
sI551
S'           isinstance(field, Field):'
p294
sI552
S'            field = field.st_astext()'
p295
sI553
S'        return self.expand(field, query_env=query_env)'
p296
sI554
S''
ssg85
S'(self=<pydal.adapters.sqlite.SQLite object>, field=<Query ("recipeContainsItem"."recipe" = 4)>, query_env={\'current_scope\': [\'recipeContainsItem\'], \'parent_scope\': []})'
p297
sg87
S'_geoexpand'
p298
sasS'pyver'
p299
S'Python 2.7.9: C:\\Users\\listc\\Downloads\\web2py_win\\web2py\\web2py.exe (prefix: )'
p300
sS'session'
p301
g59
(S's\x89\n\x00\x00<div><table><tr><td style="font-weight:bold;vertical-align:top;">auth</td><td style="vertical-align:top;">:</td><td><div><table><tr><td style="font-weight:bold;vertical-align:top;">expiration</td><td style="vertical-align:top;">:</td><td><div>3600</div></td></tr><tr><td style="font-weight:bold;vertical-align:top;">hmac_key</td><td style="vertical-align:top;">:</td><td><div>4926881b-07e8-4c06-a276-439336465d4a</div></td></tr><tr><td style="font-weight:bold;vertical-align:top;">last_visit</td><td style="vertical-align:top;">:</td><td><div>datetime.datetime(2018, 6, 7, 13, 13, 47, 80000)</div></td></tr><tr><td style="font-weight:bold;vertical-align:top;">remember_me</td><td style="vertical-align:top;">:</td><td><div>False</div></td></tr><tr><td style="font-weight:bold;vertical-align:top;">user</td><td style="vertical-align:top;">:</td><td><div><table><tr><td style="font-weight:bold;vertical-align:top;">email</td><td style="vertical-align:top;">:</td><td><div>list.corinna@gmail.com</div></td></tr><tr><td style="font-weight:bold;vertical-align:top;">first_name</td><td style="vertical-align:top;">:</td><td><div></div></td></tr><tr><td style="font-weight:bold;vertical-align:top;">id</td><td style="vertical-align:top;">:</td><td><div>3L</div></td></tr><tr><td style="font-weight:bold;vertical-align:top;">last_name</td><td style="vertical-align:top;">:</td><td><div></div></td></tr><tr><td style="font-weight:bold;vertical-align:top;">registration_id</td><td style="vertical-align:top;">:</td><td><div></div></td></tr><tr><td style="font-weight:bold;vertical-align:top;">registration_key</td><td style="vertical-align:top;">:</td><td><div></div></td></tr><tr><td style="font-weight:bold;vertical-align:top;">reset_password_key</td><td style="vertical-align:top;">:</td><td><div></div></td></tr><tr><td style="font-weight:bold;vertical-align:top;">username</td><td style="vertical-align:top;">:</td><td><div>elyra</div></td></tr></table></div></td></tr><tr><td style="font-weight:bold;vertical-align:top;">user_groups</td><td style="vertical-align:top;">:</td><td><div><table><tr><td style="font-weight:bold;vertical-align:top;">3</td><td style="vertical-align:top;">:</td><td><div>user_3</div></td></tr></table></div></td></tr></table></div></td></tr><tr><td style="font-weight:bold;vertical-align:top;">flash</td><td style="vertical-align:top;">:</td><td><div>None</div></td></tr><tr><td style="font-weight:bold;vertical-align:top;">last_orderby</td><td style="vertical-align:top;">:</td><td><div>None</div></td></tr><tr><td style="font-weight:bold;vertical-align:top;">last_query</td><td style="vertical-align:top;">:</td><td><div>db.recipe_step.id&gt;0</div></td></tr></table></div>'
tRp302
sS'etype'
p303
S"<type 'exceptions.AttributeError'>"
p304
sS'date'
p305
S'Thu Jun 07 13:15:12 2018'
p306
sS'response'
p307
g59
(S'sL\x1e\x00\x00<div><table><tr><td style="font-weight:bold;vertical-align:top;">body</td><td style="vertical-align:top;">:</td><td><div>&lt;cStringIO.StringO object at 0x048CD9A0&gt;</div></td></tr><tr><td style="font-weight:bold;vertical-align:top;">cookies</td><td style="vertical-align:top;">:</td><td><div><table><tr><td style="font-weight:bold;vertical-align:top;">session_id_cookr</td><td style="vertical-align:top;">:</td><td><div>127.0.0.1-0aae0156-8093-442c-93ae-c285cd71f438<table><tr><td style="font-weight:bold;vertical-align:top;">comment</td><td style="vertical-align:top;">:</td><td><div></div></td></tr><tr><td style="font-weight:bold;vertical-align:top;">domain</td><td style="vertical-align:top;">:</td><td><div></div></td></tr><tr><td style="font-weight:bold;vertical-align:top;">expires</td><td style="vertical-align:top;">:</td><td><div></div></td></tr><tr><td style="font-weight:bold;vertical-align:top;">httponly</td><td style="vertical-align:top;">:</td><td><div></div></td></tr><tr><td style="font-weight:bold;vertical-align:top;">max-age</td><td style="vertical-align:top;">:</td><td><div></div></td></tr><tr><td style="font-weight:bold;vertical-align:top;">path</td><td style="vertical-align:top;">:</td><td><div>/</div></td></tr><tr><td style="font-weight:bold;vertical-align:top;">secure</td><td style="vertical-align:top;">:</td><td><div></div></td></tr><tr><td style="font-weight:bold;vertical-align:top;">version</td><td style="vertical-align:top;">:</td><td><div></div></td></tr></table></div></td></tr></table></div></td></tr><tr><td style="font-weight:bold;vertical-align:top;">delimiters</td><td style="vertical-align:top;">:</td><td><div><table><tr><td><div>{{</div></td></tr><tr><td><div>}}</div></td></tr></table></div></td></tr><tr><td style="font-weight:bold;vertical-align:top;">files</td><td style="vertical-align:top;">:</td><td><div><table></table></div></td></tr><tr><td style="font-weight:bold;vertical-align:top;">flash</td><td style="vertical-align:top;">:</td><td><div></div></td></tr><tr><td style="font-weight:bold;vertical-align:top;">form_label_separator</td><td style="vertical-align:top;">:</td><td><div></div></td></tr><tr><td style="font-weight:bold;vertical-align:top;">formstyle</td><td style="vertical-align:top;">:</td><td><div>bootstrap4_inline</div></td></tr><tr><td style="font-weight:bold;vertical-align:top;">generic_patterns</td><td style="vertical-align:top;">:</td><td><div><table><tr><td><div>*</div></td></tr></table></div></td></tr><tr><td style="font-weight:bold;vertical-align:top;">google_analytics_id</td><td style="vertical-align:top;">:</td><td><div>None</div></td></tr><tr><td style="font-weight:bold;vertical-align:top;">headers</td><td style="vertical-align:top;">:</td><td><div><table><tr><td style="font-weight:bold;vertical-align:top;">X-Powered-By</td><td style="vertical-align:top;">:</td><td><div>web2py</div></td></tr></table></div></td></tr><tr><td style="font-weight:bold;vertical-align:top;">menu</td><td style="vertical-align:top;">:</td><td><div><table><tr><td><div><table><tr><td><div>Home</div></td></tr><tr><td><div>False</div></td></tr><tr><td><div>/Cookr/default/index</div></td></tr><tr><td><div><table></table></div></td></tr></table></div></td></tr><tr><td><div><table><tr><td><div>Alle Rezepte</div></td></tr><tr><td><div>False</div></td></tr><tr><td><div>/Cookr/default/recipeList</div></td></tr><tr><td><div><table></table></div></td></tr></table></div></td></tr><tr><td><div><table><tr><td><div>Eigene Rezepte verwalten</div></td></tr><tr><td><div>False</div></td></tr><tr><td><div>/Cookr/default/manageRecipes</div></td></tr><tr><td><div><table></table></div></td></tr></table></div></td></tr><tr><td><div><table><tr><td><div>Neues Rezept</div></td></tr><tr><td><div>False</div></td></tr><tr><td><div>/Cookr/default/newRecipe</div></td></tr><tr><td><div><table></table></div></td></tr></table></div></td></tr></table></div></td></tr><tr><td style="font-weight:bold;vertical-align:top;">meta</td><td style="vertical-align:top;">:</td><td><div><table><tr><td style="font-weight:bold;vertical-align:top;">author</td><td style="vertical-align:top;">:</td><td><div>Your Name &lt;you@example.com&gt;</div></td></tr><tr><td style="font-weight:bold;vertical-align:top;">description</td><td style="vertical-align:top;">:</td><td><div>a cool new app</div></td></tr><tr><td style="font-weight:bold;vertical-align:top;">generator</td><td style="vertical-align:top;">:</td><td><div>Web2py Web Framework</div></td></tr><tr><td style="font-weight:bold;vertical-align:top;">keywords</td><td style="vertical-align:top;">:</td><td><div><table><tr><td><div>web2py</div></td></tr><tr><td><div>python</div></td></tr><tr><td><div>framework</div></td></tr></table></div></td></tr></table></div></td></tr><tr><td style="font-weight:bold;vertical-align:top;">models_to_run</td><td style="vertical-align:top;">:</td><td><div><table><tr><td><div>^\\w+\\.py$</div></td></tr><tr><td><div>^default/\\w+\\.py$</div></td></tr><tr><td><div>^default/showRecipe/\\w+\\.py$</div></td></tr></table></div></td></tr><tr><td style="font-weight:bold;vertical-align:top;">postprocessing</td><td style="vertical-align:top;">:</td><td><div><table></table></div></td></tr><tr><td style="font-weight:bold;vertical-align:top;">session_client</td><td style="vertical-align:top;">:</td><td><div>127.0.0.1</div></td></tr><tr><td style="font-weight:bold;vertical-align:top;">session_cookie_compression_level</td><td style="vertical-align:top;">:</td><td><div>None</div></td></tr><tr><td style="font-weight:bold;vertical-align:top;">session_cookie_expires</td><td style="vertical-align:top;">:</td><td><div>None</div></td></tr><tr><td style="font-weight:bold;vertical-align:top;">session_data_name</td><td style="vertical-align:top;">:</td><td><div>session_data_cookr</div></td></tr><tr><td style="font-weight:bold;vertical-align:top;">session_file</td><td style="vertical-align:top;">:</td><td><div>&lt;open file &#x27;C:\\\\Users\\\\listc\\\\Downloads\\\\web2py_win\\\\web2py\\\\applications\\\\Cookr\\\\sessions\\\\14d\\\\1c0\\\\127.0.0.1-0aae0156-8093-442c-93ae-c285cd71f438&#x27;, mode &#x27;rb+&#x27; at 0x0498BA18&gt;</div></td></tr><tr><td style="font-weight:bold;vertical-align:top;">session_filename</td><td style="vertical-align:top;">:</td><td><div>C:\\Users\\listc\\Downloads\\web2py_win\\web2py\\applications\\Cookr\\sessions\\127.0.0.1-0aae0156-8093-442c-93ae-c285cd71f438</div></td></tr><tr><td style="font-weight:bold;vertical-align:top;">session_hash</td><td style="vertical-align:top;">:</td><td><div>7c5dfb3c5d0ace8ce7116855735afeff</div></td></tr><tr><td style="font-weight:bold;vertical-align:top;">session_id</td><td style="vertical-align:top;">:</td><td><div>127.0.0.1-0aae0156-8093-442c-93ae-c285cd71f438</div></td></tr><tr><td style="font-weight:bold;vertical-align:top;">session_id_name</td><td style="vertical-align:top;">:</td><td><div>session_id_cookr</div></td></tr><tr><td style="font-weight:bold;vertical-align:top;">session_locked</td><td style="vertical-align:top;">:</td><td><div>True</div></td></tr><tr><td style="font-weight:bold;vertical-align:top;">session_masterapp</td><td style="vertical-align:top;">:</td><td><div>Cookr</div></td></tr><tr><td style="font-weight:bold;vertical-align:top;">session_new</td><td style="vertical-align:top;">:</td><td><div>False</div></td></tr><tr><td style="font-weight:bold;vertical-align:top;">session_storage_type</td><td style="vertical-align:top;">:</td><td><div>file</div></td></tr><tr><td style="font-weight:bold;vertical-align:top;">status</td><td style="vertical-align:top;">:</td><td><div>200</div></td></tr><tr><td style="font-weight:bold;vertical-align:top;">view</td><td style="vertical-align:top;">:</td><td><div>default/showRecipe.html</div></td></tr></table></div>'
tRp308
sS'locals'
p309
(dp310
S'query_env'
p311
S"{'current_scope': ['recipeContainsItem'], 'parent_scope': []}"
p312
sS'self'
p313
S'<pydal.adapters.sqlite.SQLite object>'
p314
sS'field'
p315
S'<Query ("recipeContainsItem"."recipe" = 4)>'
p316
sssS'traceback'
p317
S'Traceback (most recent call last):\n  File "C:\\Users\\listc\\Downloads\\web2py_win\\web2py\\gluon\\restricted.py", line 219, in restricted\n    exec(ccode, environment)\n  File "C:\\Users\\listc\\Downloads\\web2py_win\\web2py\\applications\\Cookr\\controllers/default.py", line 89, in <module>\n  File "C:\\Users\\listc\\Downloads\\web2py_win\\web2py\\gluon\\globals.py", line 419, in <lambda>\n    self._caller = lambda f: f()\n  File "C:\\Users\\listc\\Downloads\\web2py_win\\web2py\\applications\\Cookr\\controllers/default.py", line 33, in showRecipe\n    items = db(db.recipeContainsItem).select(db.recipeContainsItem.recipe == recipe.id)\n  File "C:\\Users\\listc\\Downloads\\web2py_win\\web2py\\gluon\\packages\\dal\\pydal\\objects.py", line 2250, in select\n    return adapter.select(self.query, fields, attributes)\n  File "C:\\Users\\listc\\Downloads\\web2py_win\\web2py\\gluon\\packages\\dal\\pydal\\adapters\\sqlite.py", line 82, in select\n    return super(SQLite, self).select(query, fields, attributes)\n  File "C:\\Users\\listc\\Downloads\\web2py_win\\web2py\\gluon\\packages\\dal\\pydal\\adapters\\base.py", line 757, in select\n    colnames, sql = self._select_wcols(query, fields, **attributes)\n  File "C:\\Users\\listc\\Downloads\\web2py_win\\web2py\\gluon\\packages\\dal\\pydal\\adapters\\base.py", line 632, in _select_wcols\n    sql_fields = \', \'.join(self._geoexpand(x, query_env) for x in fields)\n  File "C:\\Users\\listc\\Downloads\\web2py_win\\web2py\\gluon\\packages\\dal\\pydal\\adapters\\base.py", line 632, in <genexpr>\n    sql_fields = \', \'.join(self._geoexpand(x, query_env) for x in fields)\n  File "C:\\Users\\listc\\Downloads\\web2py_win\\web2py\\gluon\\packages\\dal\\pydal\\adapters\\base.py", line 550, in _geoexpand\n    if isinstance(field.type, str) and field.type.startswith(\'geo\') and \\\nAttributeError: \'Query\' object has no attribute \'type\'\n'
p318
s.