(dp1
S'output'
p2
S"<type 'exceptions.AttributeError'> 'int' object has no attribute 'split'"
p3
sS'layer'
p4
S'E:\\Studium\\SoSe2018\\web2py\\applications\\Cookr\\controllers/default.py'
p5
sS'code'
p6
S'<code object <module> at 06171578, file "E:\\Studium\\SoSe2018\\web2py\\applications\\Cookr\\controllers/default.py", line 8>'
p7
sS'snapshot'
p8
(dp9
S'exception'
p10
(dp11
S'__getslice__'
p12
S"<method-wrapper '__getslice__' of exceptions.AttributeError object>"
p13
sS'__str__'
p14
S"<method-wrapper '__str__' of exceptions.AttributeError object>"
p15
sS'__reduce__'
p16
S'<built-in method __reduce__ of exceptions.AttributeError object>'
p17
sS'__dict__'
p18
S'{}'
p19
sS'message'
p20
S'"\'int\' object has no attribute \'split\'"'
p21
sS'__sizeof__'
p22
S'<built-in method __sizeof__ of exceptions.AttributeError object>'
p23
sS'__init__'
p24
S"<method-wrapper '__init__' of exceptions.AttributeError object>"
p25
sS'__setattr__'
p26
S"<method-wrapper '__setattr__' of exceptions.AttributeError object>"
p27
sS'__reduce_ex__'
p28
S'<built-in method __reduce_ex__ of exceptions.AttributeError object>'
p29
sS'__new__'
p30
S'<built-in method __new__ of type object>'
p31
sS'__format__'
p32
S'<built-in method __format__ of exceptions.AttributeError object>'
p33
sS'__class__'
p34
S"<type 'exceptions.AttributeError'>"
p35
sS'__doc__'
p36
S"'Attribute not found.'"
p37
sS'__getitem__'
p38
S"<method-wrapper '__getitem__' of exceptions.AttributeError object>"
p39
sS'__setstate__'
p40
S'<built-in method __setstate__ of exceptions.AttributeError object>'
p41
sS'__getattribute__'
p42
S"<method-wrapper '__getattribute__' of exceptions.AttributeError object>"
p43
sS'args'
p44
S'("\'int\' object has no attribute \'split\'",)'
p45
sS'__subclasshook__'
p46
S'<built-in method __subclasshook__ of type object>'
p47
sS'__unicode__'
p48
S'<built-in method __unicode__ of exceptions.AttributeError object>'
p49
sS'__delattr__'
p50
S"<method-wrapper '__delattr__' of exceptions.AttributeError object>"
p51
sS'__repr__'
p52
S"<method-wrapper '__repr__' of exceptions.AttributeError object>"
p53
sS'__hash__'
p54
S"<method-wrapper '__hash__' of exceptions.AttributeError object>"
p55
ssS'evalue'
p56
S"'int' object has no attribute 'split'"
p57
sS'request'
p58
cgluon.html
XML_unpickle
p59
(S's\x8d^\x00\x00<div><table><tr><td style="font-weight:bold;vertical-align:top;">ajax</td><td style="vertical-align:top;">:</td><td><div>False</div></td></tr><tr><td style="font-weight:bold;vertical-align:top;">application</td><td style="vertical-align:top;">:</td><td><div>Cookr</div></td></tr><tr><td style="font-weight:bold;vertical-align:top;">args</td><td style="vertical-align:top;">:</td><td><div><table><tr><td><div>8</div></td></tr></table></div></td></tr><tr><td style="font-weight:bold;vertical-align:top;">cid</td><td style="vertical-align:top;">:</td><td><div>None</div></td></tr><tr><td style="font-weight:bold;vertical-align:top;">client</td><td style="vertical-align:top;">:</td><td><div>127.0.0.1</div></td></tr><tr><td style="font-weight:bold;vertical-align:top;">controller</td><td style="vertical-align:top;">:</td><td><div>default</div></td></tr><tr><td style="font-weight:bold;vertical-align:top;">cookies</td><td style="vertical-align:top;">:</td><td><div><table><tr><td style="font-weight:bold;vertical-align:top;">session_id_admin</td><td style="vertical-align:top;">:</td><td><div>127.0.0.1-cd437d29-8953-4b18-8292-86a678008826<table><tr><td style="font-weight:bold;vertical-align:top;">comment</td><td style="vertical-align:top;">:</td><td><div></div></td></tr><tr><td style="font-weight:bold;vertical-align:top;">domain</td><td style="vertical-align:top;">:</td><td><div></div></td></tr><tr><td style="font-weight:bold;vertical-align:top;">expires</td><td style="vertical-align:top;">:</td><td><div></div></td></tr><tr><td style="font-weight:bold;vertical-align:top;">httponly</td><td style="vertical-align:top;">:</td><td><div></div></td></tr><tr><td style="font-weight:bold;vertical-align:top;">max-age</td><td style="vertical-align:top;">:</td><td><div></div></td></tr><tr><td style="font-weight:bold;vertical-align:top;">path</td><td style="vertical-align:top;">:</td><td><div></div></td></tr><tr><td style="font-weight:bold;vertical-align:top;">secure</td><td style="vertical-align:top;">:</td><td><div></div></td></tr><tr><td style="font-weight:bold;vertical-align:top;">version</td><td style="vertical-align:top;">:</td><td><div></div></td></tr></table></div></td></tr><tr><td style="font-weight:bold;vertical-align:top;">session_id_cookr</td><td style="vertical-align:top;">:</td><td><div>127.0.0.1-624d3bcf-7f69-4f3a-9fb5-4a0def9a30f2<table><tr><td style="font-weight:bold;vertical-align:top;">comment</td><td style="vertical-align:top;">:</td><td><div></div></td></tr><tr><td style="font-weight:bold;vertical-align:top;">domain</td><td style="vertical-align:top;">:</td><td><div></div></td></tr><tr><td style="font-weight:bold;vertical-align:top;">expires</td><td style="vertical-align:top;">:</td><td><div></div></td></tr><tr><td style="font-weight:bold;vertical-align:top;">httponly</td><td style="vertical-align:top;">:</td><td><div></div></td></tr><tr><td style="font-weight:bold;vertical-align:top;">max-age</td><td style="vertical-align:top;">:</td><td><div></div></td></tr><tr><td style="font-weight:bold;vertical-align:top;">path</td><td style="vertical-align:top;">:</td><td><div></div></td></tr><tr><td style="font-weight:bold;vertical-align:top;">secure</td><td style="vertical-align:top;">:</td><td><div></div></td></tr><tr><td style="font-weight:bold;vertical-align:top;">version</td><td style="vertical-align:top;">:</td><td><div></div></td></tr></table></div></td></tr><tr><td style="font-weight:bold;vertical-align:top;">session_id_welcome</td><td style="vertical-align:top;">:</td><td><div>127.0.0.1-86086d27-beb6-498a-b93b-49985752e54d<table><tr><td style="font-weight:bold;vertical-align:top;">comment</td><td style="vertical-align:top;">:</td><td><div></div></td></tr><tr><td style="font-weight:bold;vertical-align:top;">domain</td><td style="vertical-align:top;">:</td><td><div></div></td></tr><tr><td style="font-weight:bold;vertical-align:top;">expires</td><td style="vertical-align:top;">:</td><td><div></div></td></tr><tr><td style="font-weight:bold;vertical-align:top;">httponly</td><td style="vertical-align:top;">:</td><td><div></div></td></tr><tr><td style="font-weight:bold;vertical-align:top;">max-age</td><td style="vertical-align:top;">:</td><td><div></div></td></tr><tr><td style="font-weight:bold;vertical-align:top;">path</td><td style="vertical-align:top;">:</td><td><div></div></td></tr><tr><td style="font-weight:bold;vertical-align:top;">secure</td><td style="vertical-align:top;">:</td><td><div></div></td></tr><tr><td style="font-weight:bold;vertical-align:top;">version</td><td style="vertical-align:top;">:</td><td><div></div></td></tr></table></div></td></tr></table></div></td></tr><tr><td style="font-weight:bold;vertical-align:top;">env</td><td style="vertical-align:top;">:</td><td><div><table><tr><td style="font-weight:bold;vertical-align:top;">HTTP_ACCEPT</td><td style="vertical-align:top;">:</td><td><div>text/html,application/xhtml+xml,application/xml;q=0.9,image/webp,image/apng,*/*;q=0.8</div></td></tr><tr><td style="font-weight:bold;vertical-align:top;">HTTP_ACCEPT_ENCODING</td><td style="vertical-align:top;">:</td><td><div>gzip, deflate, br</div></td></tr><tr><td style="font-weight:bold;vertical-align:top;">HTTP_ACCEPT_LANGUAGE</td><td style="vertical-align:top;">:</td><td><div>en-US,en;q=0.9</div></td></tr><tr><td style="font-weight:bold;vertical-align:top;">HTTP_CACHE_CONTROL</td><td style="vertical-align:top;">:</td><td><div>max-age=0</div></td></tr><tr><td style="font-weight:bold;vertical-align:top;">HTTP_CONNECTION</td><td style="vertical-align:top;">:</td><td><div>keep-alive</div></td></tr><tr><td style="font-weight:bold;vertical-align:top;">HTTP_COOKIE</td><td style="vertical-align:top;">:</td><td><div>session_id_admin=127.0.0.1-cd437d29-8953-4b18-8292-86a678008826; session_id_welcome=127.0.0.1-86086d27-beb6-498a-b93b-49985752e54d; session_id_cookr=127.0.0.1-624d3bcf-7f69-4f3a-9fb5-4a0def9a30f2</div></td></tr><tr><td style="font-weight:bold;vertical-align:top;">HTTP_DNT</td><td style="vertical-align:top;">:</td><td><div>1</div></td></tr><tr><td style="font-weight:bold;vertical-align:top;">HTTP_HOST</td><td style="vertical-align:top;">:</td><td><div>127.0.0.1:8000</div></td></tr><tr><td style="font-weight:bold;vertical-align:top;">HTTP_UPGRADE_INSECURE_REQUESTS</td><td style="vertical-align:top;">:</td><td><div>1</div></td></tr><tr><td style="font-weight:bold;vertical-align:top;">HTTP_USER_AGENT</td><td style="vertical-align:top;">:</td><td><div>Mozilla/5.0 (Windows NT 10.0; Win64; x64) AppleWebKit/537.36 (KHTML, like Gecko) Chrome/66.0.3359.181 Safari/537.36</div></td></tr><tr><td style="font-weight:bold;vertical-align:top;">PATH_INFO</td><td style="vertical-align:top;">:</td><td><div>/Cookr/default/editRecipe/8</div></td></tr><tr><td style="font-weight:bold;vertical-align:top;">QUERY_STRING</td><td style="vertical-align:top;">:</td><td><div></div></td></tr><tr><td style="font-weight:bold;vertical-align:top;">REMOTE_ADDR</td><td style="vertical-align:top;">:</td><td><div>127.0.0.1</div></td></tr><tr><td style="font-weight:bold;vertical-align:top;">REMOTE_PORT</td><td style="vertical-align:top;">:</td><td><div>55315</div></td></tr><tr><td style="font-weight:bold;vertical-align:top;">REQUEST_METHOD</td><td style="vertical-align:top;">:</td><td><div>GET</div></td></tr><tr><td style="font-weight:bold;vertical-align:top;">SCRIPT_NAME</td><td style="vertical-align:top;">:</td><td><div></div></td></tr><tr><td style="font-weight:bold;vertical-align:top;">SERVER_NAME</td><td style="vertical-align:top;">:</td><td><div>LAPTOP-RO5O265P</div></td></tr><tr><td style="font-weight:bold;vertical-align:top;">SERVER_PORT</td><td style="vertical-align:top;">:</td><td><div>8000</div></td></tr><tr><td style="font-weight:bold;vertical-align:top;">SERVER_PROTOCOL</td><td style="vertical-align:top;">:</td><td><div>HTTP/1.1</div></td></tr><tr><td style="font-weight:bold;vertical-align:top;">SERVER_SOFTWARE</td><td style="vertical-align:top;">:</td><td><div>Rocket 1.2.6</div></td></tr><tr><td style="font-weight:bold;vertical-align:top;">app_folders</td><td style="vertical-align:top;">:</td><td><div>set([&#x27;E:\\\\Studium\\\\SoSe2018\\\\web2py\\\\applications\\\\Cookr\\\\&#x27;, &#x27;E:\\\\Studium\\\\SoSe2018\\\\web2py\\\\applications\\\\admin\\\\&#x27;, &#x27;E:\\\\Studium\\\\SoSe2018\\\\web2py\\\\applications\\\\welcome\\\\&#x27;])</div></td></tr><tr><td style="font-weight:bold;vertical-align:top;">applications_parent</td><td style="vertical-align:top;">:</td><td><div>E:\\Studium\\SoSe2018\\web2py</div></td></tr><tr><td style="font-weight:bold;vertical-align:top;">cmd_args</td><td style="vertical-align:top;">:</td><td><div><table></table></div></td></tr><tr><td style="font-weight:bold;vertical-align:top;">cmd_options</td><td style="vertical-align:top;">:</td><td><div>&lt;Values at 0x331ee90: {&#x27;verbose&#x27;: False, &#x27;ip&#x27;: &#x27;127.0.0.1&#x27;, &#x27;debuglevel&#x27;: 30, &#x27;with_scheduler&#x27;: False, &#x27;shutdown_timeout&#x27;: 5, &#x27;taskbar&#x27;: False, &#x27;with_coverage&#x27;: False, &#x27;pid_filename&#x27;: &#x27;httpserver.pid&#x27;, &#x27;maxthreads&#x27;: None, &#x27;softcron&#x27;: False, &#x27;server_name&#x27;: &#x27;LAPTOP-RO5O265P&#x27;, &#x27;bpython&#x27;: False, &#x27;nogui&#x27;: False, &#x27;port&#x27;: 8000, &#x27;print_errors&#x27;: False, &#x27;extcron&#x27;: False, &#x27;runcron&#x27;: False, &#x27;run_system_tests&#x27;: False, &#x27;test&#x27;: None, &#x27;folder&#x27;: &#x27;E:\\\\Studium\\\\SoSe2018\\\\web2py&#x27;, &#x27;config&#x27;: &#x27;&#x27;, &#x27;minthreads&#x27;: None, &#x27;shell&#x27;: None, &#x27;run&#x27;: &#x27;&#x27;, &#x27;log_filename&#x27;: &#x27;httpserver.log&#x27;, &#x27;profiler_dir&#x27;: None, &#x27;args&#x27;: [&#x27;&#x27;], &#x27;socket_timeout&#x27;: 5, &#x27;ssl_ca_certificate&#x27;: None, &#x27;scheduler&#x27;: None, &#x27;interfaces&#x27;: None, &#x27;ssl_private_key&#x27;: &#x27;&#x27;, &#x27;gae&#x27;: None, &#x27;password&#x27;: &#x27;******&#x27;, &#x27;request_queue_size&#x27;: 5, &#x27;ssl_certificate&#x27;: &#x27;&#x27;, &#x27;cronjob&#x27;: False, &#x27;numthreads&#x27;: None, &#x27;quiet&#x27;: False, &#x27;import_models&#x27;: False, &#x27;timeout&#x27;: 10, &#x27;plain&#x27;: False, &#x27;nobanner&#x27;: False}&gt;</div></td></tr><tr><td style="font-weight:bold;vertical-align:top;">db_sessions</td><td style="vertical-align:top;">:</td><td><div>set([])</div></td></tr><tr><td style="font-weight:bold;vertical-align:top;">debugging</td><td style="vertical-align:top;">:</td><td><div>True</div></td></tr><tr><td style="font-weight:bold;vertical-align:top;">gluon_parent</td><td style="vertical-align:top;">:</td><td><div>E:\\Studium\\SoSe2018\\web2py</div></td></tr><tr><td style="font-weight:bold;vertical-align:top;">http_accept</td><td style="vertical-align:top;">:</td><td><div>text/html,application/xhtml+xml,application/xml;q=0.9,image/webp,image/apng,*/*;q=0.8</div></td></tr><tr><td style="font-weight:bold;vertical-align:top;">http_accept_encoding</td><td style="vertical-align:top;">:</td><td><div>gzip, deflate, br</div></td></tr><tr><td style="font-weight:bold;vertical-align:top;">http_accept_language</td><td style="vertical-align:top;">:</td><td><div>en-US,en;q=0.9</div></td></tr><tr><td style="font-weight:bold;vertical-align:top;">http_cache_control</td><td style="vertical-align:top;">:</td><td><div>max-age=0</div></td></tr><tr><td style="font-weight:bold;vertical-align:top;">http_connection</td><td style="vertical-align:top;">:</td><td><div>keep-alive</div></td></tr><tr><td style="font-weight:bold;vertical-align:top;">http_cookie</td><td style="vertical-align:top;">:</td><td><div>session_id_admin=127.0.0.1-cd437d29-8953-4b18-8292-86a678008826; session_id_welcome=127.0.0.1-86086d27-beb6-498a-b93b-49985752e54d; session_id_cookr=127.0.0.1-624d3bcf-7f69-4f3a-9fb5-4a0def9a30f2</div></td></tr><tr><td style="font-weight:bold;vertical-align:top;">http_dnt</td><td style="vertical-align:top;">:</td><td><div>1</div></td></tr><tr><td style="font-weight:bold;vertical-align:top;">http_host</td><td style="vertical-align:top;">:</td><td><div>127.0.0.1:8000</div></td></tr><tr><td style="font-weight:bold;vertical-align:top;">http_upgrade_insecure_requests</td><td style="vertical-align:top;">:</td><td><div>1</div></td></tr><tr><td style="font-weight:bold;vertical-align:top;">http_user_agent</td><td style="vertical-align:top;">:</td><td><div>Mozilla/5.0 (Windows NT 10.0; Win64; x64) AppleWebKit/537.36 (KHTML, like Gecko) Chrome/66.0.3359.181 Safari/537.36</div></td></tr><tr><td style="font-weight:bold;vertical-align:top;">is_jython</td><td style="vertical-align:top;">:</td><td><div>False</div></td></tr><tr><td style="font-weight:bold;vertical-align:top;">is_py2</td><td style="vertical-align:top;">:</td><td><div>True</div></td></tr><tr><td style="font-weight:bold;vertical-align:top;">is_pypy</td><td style="vertical-align:top;">:</td><td><div>False</div></td></tr><tr><td style="font-weight:bold;vertical-align:top;">is_source</td><td style="vertical-align:top;">:</td><td><div>False</div></td></tr><tr><td style="font-weight:bold;vertical-align:top;">local_hosts</td><td style="vertical-align:top;">:</td><td><div><table><tr><td><div>fe80::642f:b21f:fdec:c40a%8</div></td></tr><tr><td><div>192.168.178.23</div></td></tr><tr><td><div>::ffff:127.0.0.1</div></td></tr><tr><td><div>::1</div></td></tr><tr><td><div>LAPTOP-RO5O265P.fritz.box</div></td></tr><tr><td><div>LAPTOP-RO5O265P</div></td></tr><tr><td><div>127.0.0.1</div></td></tr></table></div></td></tr><tr><td style="font-weight:bold;vertical-align:top;">path_info</td><td style="vertical-align:top;">:</td><td><div>/Cookr/default/editRecipe/8</div></td></tr><tr><td style="font-weight:bold;vertical-align:top;">query_string</td><td style="vertical-align:top;">:</td><td><div></div></td></tr><tr><td style="font-weight:bold;vertical-align:top;">remote_addr</td><td style="vertical-align:top;">:</td><td><div>127.0.0.1</div></td></tr><tr><td style="font-weight:bold;vertical-align:top;">remote_port</td><td style="vertical-align:top;">:</td><td><div>55315</div></td></tr><tr><td style="font-weight:bold;vertical-align:top;">request_method</td><td style="vertical-align:top;">:</td><td><div>GET</div></td></tr><tr><td style="font-weight:bold;vertical-align:top;">request_uri</td><td style="vertical-align:top;">:</td><td><div>/Cookr/default/editRecipe/8</div></td></tr><tr><td style="font-weight:bold;vertical-align:top;">script_name</td><td style="vertical-align:top;">:</td><td><div></div></td></tr><tr><td style="font-weight:bold;vertical-align:top;">server_name</td><td style="vertical-align:top;">:</td><td><div>LAPTOP-RO5O265P</div></td></tr><tr><td style="font-weight:bold;vertical-align:top;">server_port</td><td style="vertical-align:top;">:</td><td><div>8000</div></td></tr><tr><td style="font-weight:bold;vertical-align:top;">server_protocol</td><td style="vertical-align:top;">:</td><td><div>HTTP/1.1</div></td></tr><tr><td style="font-weight:bold;vertical-align:top;">server_software</td><td style="vertical-align:top;">:</td><td><div>Rocket 1.2.6</div></td></tr><tr><td style="font-weight:bold;vertical-align:top;">web2py_path</td><td style="vertical-align:top;">:</td><td><div>E:\\Studium\\SoSe2018\\web2py</div></td></tr><tr><td style="font-weight:bold;vertical-align:top;">web2py_version</td><td style="vertical-align:top;">:</td><td><div>2.16.1-stable+timestamp.2017.11.14.05.54.25</div></td></tr><tr><td style="font-weight:bold;vertical-align:top;">wsgi.errors</td><td style="vertical-align:top;">:</td><td><div>&lt;open file &#x27;&lt;stderr&gt;&#x27;, mode &#x27;w&#x27; at 0x023CD0D0&gt;</div></td></tr><tr><td style="font-weight:bold;vertical-align:top;">wsgi.file_wrapper</td><td style="vertical-align:top;">:</td><td><div>&lt;class wsgiref.util.FileWrapper at 0x0321AC00&gt;</div></td></tr><tr><td style="font-weight:bold;vertical-align:top;">wsgi.input</td><td style="vertical-align:top;">:</td><td><div>&lt;socket._fileobject object at 0x04C8CAF0&gt;</div></td></tr><tr><td style="font-weight:bold;vertical-align:top;">wsgi.multiprocess</td><td style="vertical-align:top;">:</td><td><div>False</div></td></tr><tr><td style="font-weight:bold;vertical-align:top;">wsgi.multithread</td><td style="vertical-align:top;">:</td><td><div>True</div></td></tr><tr><td style="font-weight:bold;vertical-align:top;">wsgi.run_once</td><td style="vertical-align:top;">:</td><td><div>False</div></td></tr><tr><td style="font-weight:bold;vertical-align:top;">wsgi.url_scheme</td><td style="vertical-align:top;">:</td><td><div>http</div></td></tr><tr><td style="font-weight:bold;vertical-align:top;">wsgi.version</td><td style="vertical-align:top;">:</td><td><div><table><tr><td><div>1</div></td></tr><tr><td><div>0</div></td></tr></table></div></td></tr><tr><td style="font-weight:bold;vertical-align:top;">wsgi_errors</td><td style="vertical-align:top;">:</td><td><div>&lt;open file &#x27;&lt;stderr&gt;&#x27;, mode &#x27;w&#x27; at 0x023CD0D0&gt;</div></td></tr><tr><td style="font-weight:bold;vertical-align:top;">wsgi_file_wrapper</td><td style="vertical-align:top;">:</td><td><div>&lt;class wsgiref.util.FileWrapper at 0x0321AC00&gt;</div></td></tr><tr><td style="font-weight:bold;vertical-align:top;">wsgi_input</td><td style="vertical-align:top;">:</td><td><div>&lt;socket._fileobject object at 0x04C8CAF0&gt;</div></td></tr><tr><td style="font-weight:bold;vertical-align:top;">wsgi_multiprocess</td><td style="vertical-align:top;">:</td><td><div>False</div></td></tr><tr><td style="font-weight:bold;vertical-align:top;">wsgi_multithread</td><td style="vertical-align:top;">:</td><td><div>True</div></td></tr><tr><td style="font-weight:bold;vertical-align:top;">wsgi_run_once</td><td style="vertical-align:top;">:</td><td><div>False</div></td></tr><tr><td style="font-weight:bold;vertical-align:top;">wsgi_url_scheme</td><td style="vertical-align:top;">:</td><td><div>http</div></td></tr><tr><td style="font-weight:bold;vertical-align:top;">wsgi_version</td><td style="vertical-align:top;">:</td><td><div><table><tr><td><div>1</div></td></tr><tr><td><div>0</div></td></tr></table></div></td></tr></table></div></td></tr><tr><td style="font-weight:bold;vertical-align:top;">extension</td><td style="vertical-align:top;">:</td><td><div>html</div></td></tr><tr><td style="font-weight:bold;vertical-align:top;">folder</td><td style="vertical-align:top;">:</td><td><div>E:\\Studium\\SoSe2018\\web2py\\applications\\Cookr\\</div></td></tr><tr><td style="font-weight:bold;vertical-align:top;">function</td><td style="vertical-align:top;">:</td><td><div>editRecipe</div></td></tr><tr><td style="font-weight:bold;vertical-align:top;">global_settings</td><td style="vertical-align:top;">:</td><td><div><table><tr><td style="font-weight:bold;vertical-align:top;">app_folders</td><td style="vertical-align:top;">:</td><td><div>set([&#x27;E:\\\\Studium\\\\SoSe2018\\\\web2py\\\\applications\\\\Cookr\\\\&#x27;, &#x27;E:\\\\Studium\\\\SoSe2018\\\\web2py\\\\applications\\\\admin\\\\&#x27;, &#x27;E:\\\\Studium\\\\SoSe2018\\\\web2py\\\\applications\\\\welcome\\\\&#x27;])</div></td></tr><tr><td style="font-weight:bold;vertical-align:top;">applications_parent</td><td style="vertical-align:top;">:</td><td><div>E:\\Studium\\SoSe2018\\web2py</div></td></tr><tr><td style="font-weight:bold;vertical-align:top;">cmd_args</td><td style="vertical-align:top;">:</td><td><div><table></table></div></td></tr><tr><td style="font-weight:bold;vertical-align:top;">cmd_options</td><td style="vertical-align:top;">:</td><td><div>&lt;Values at 0x331ee90: {&#x27;verbose&#x27;: False, &#x27;ip&#x27;: &#x27;127.0.0.1&#x27;, &#x27;debuglevel&#x27;: 30, &#x27;with_scheduler&#x27;: False, &#x27;shutdown_timeout&#x27;: 5, &#x27;taskbar&#x27;: False, &#x27;with_coverage&#x27;: False, &#x27;pid_filename&#x27;: &#x27;httpserver.pid&#x27;, &#x27;maxthreads&#x27;: None, &#x27;softcron&#x27;: False, &#x27;server_name&#x27;: &#x27;LAPTOP-RO5O265P&#x27;, &#x27;bpython&#x27;: False, &#x27;nogui&#x27;: False, &#x27;port&#x27;: 8000, &#x27;print_errors&#x27;: False, &#x27;extcron&#x27;: False, &#x27;runcron&#x27;: False, &#x27;run_system_tests&#x27;: False, &#x27;test&#x27;: None, &#x27;folder&#x27;: &#x27;E:\\\\Studium\\\\SoSe2018\\\\web2py&#x27;, &#x27;config&#x27;: &#x27;&#x27;, &#x27;minthreads&#x27;: None, &#x27;shell&#x27;: None, &#x27;run&#x27;: &#x27;&#x27;, &#x27;log_filename&#x27;: &#x27;httpserver.log&#x27;, &#x27;profiler_dir&#x27;: None, &#x27;args&#x27;: [&#x27;&#x27;], &#x27;socket_timeout&#x27;: 5, &#x27;ssl_ca_certificate&#x27;: None, &#x27;scheduler&#x27;: None, &#x27;interfaces&#x27;: None, &#x27;ssl_private_key&#x27;: &#x27;&#x27;, &#x27;gae&#x27;: None, &#x27;password&#x27;: &#x27;******&#x27;, &#x27;request_queue_size&#x27;: 5, &#x27;ssl_certificate&#x27;: &#x27;&#x27;, &#x27;cronjob&#x27;: False, &#x27;numthreads&#x27;: None, &#x27;quiet&#x27;: False, &#x27;import_models&#x27;: False, &#x27;timeout&#x27;: 10, &#x27;plain&#x27;: False, &#x27;nobanner&#x27;: False}&gt;</div></td></tr><tr><td style="font-weight:bold;vertical-align:top;">db_sessions</td><td style="vertical-align:top;">:</td><td><div>set([])</div></td></tr><tr><td style="font-weight:bold;vertical-align:top;">debugging</td><td style="vertical-align:top;">:</td><td><div>True</div></td></tr><tr><td style="font-weight:bold;vertical-align:top;">gluon_parent</td><td style="vertical-align:top;">:</td><td><div>E:\\Studium\\SoSe2018\\web2py</div></td></tr><tr><td style="font-weight:bold;vertical-align:top;">is_jython</td><td style="vertical-align:top;">:</td><td><div>False</div></td></tr><tr><td style="font-weight:bold;vertical-align:top;">is_py2</td><td style="vertical-align:top;">:</td><td><div>True</div></td></tr><tr><td style="font-weight:bold;vertical-align:top;">is_pypy</td><td style="vertical-align:top;">:</td><td><div>False</div></td></tr><tr><td style="font-weight:bold;vertical-align:top;">is_source</td><td style="vertical-align:top;">:</td><td><div>False</div></td></tr><tr><td style="font-weight:bold;vertical-align:top;">local_hosts</td><td style="vertical-align:top;">:</td><td><div><table><tr><td><div>fe80::642f:b21f:fdec:c40a%8</div></td></tr><tr><td><div>192.168.178.23</div></td></tr><tr><td><div>::ffff:127.0.0.1</div></td></tr><tr><td><div>::1</div></td></tr><tr><td><div>LAPTOP-RO5O265P.fritz.box</div></td></tr><tr><td><div>LAPTOP-RO5O265P</div></td></tr><tr><td><div>127.0.0.1</div></td></tr></table></div></td></tr><tr><td style="font-weight:bold;vertical-align:top;">web2py_version</td><td style="vertical-align:top;">:</td><td><div>2.16.1-stable+timestamp.2017.11.14.05.54.25</div></td></tr></table></div></td></tr><tr><td style="font-weight:bold;vertical-align:top;">is_https</td><td style="vertical-align:top;">:</td><td><div>False</div></td></tr><tr><td style="font-weight:bold;vertical-align:top;">is_local</td><td style="vertical-align:top;">:</td><td><div>True</div></td></tr><tr><td style="font-weight:bold;vertical-align:top;">is_restful</td><td style="vertical-align:top;">:</td><td><div>False</div></td></tr><tr><td style="font-weight:bold;vertical-align:top;">is_scheduler</td><td style="vertical-align:top;">:</td><td><div>False</div></td></tr><tr><td style="font-weight:bold;vertical-align:top;">is_shell</td><td style="vertical-align:top;">:</td><td><div>False</div></td></tr><tr><td style="font-weight:bold;vertical-align:top;">now</td><td style="vertical-align:top;">:</td><td><div>datetime.datetime(2018, 6, 8, 17, 20, 39, 807000)</div></td></tr><tr><td style="font-weight:bold;vertical-align:top;">raw_args</td><td style="vertical-align:top;">:</td><td><div>8</div></td></tr><tr><td style="font-weight:bold;vertical-align:top;">raw_extension</td><td style="vertical-align:top;">:</td><td><div>None</div></td></tr><tr><td style="font-weight:bold;vertical-align:top;">url</td><td style="vertical-align:top;">:</td><td><div>/Cookr/default/editRecipe/8</div></td></tr><tr><td style="font-weight:bold;vertical-align:top;">utcnow</td><td style="vertical-align:top;">:</td><td><div>datetime.datetime(2018, 6, 8, 15, 20, 39, 807000)</div></td></tr><tr><td style="font-weight:bold;vertical-align:top;">wsgi</td><td style="vertical-align:top;">:</td><td><div>&lt;gluon.main.LazyWSGI object at 0x041A6F10&gt;</div></td></tr></table></div>'
tRp60
sS'frames'
p61
(lp62
(dp63
S'file'
p64
S'E:\\Studium\\SoSe2018\\web2py\\gluon\\restricted.py'
p65
sS'dump'
p66
(dp67
S'environment'
p68
S"{'A': <class 'gluon.html.A'>, 'ANY_OF': <class 'gluon.validators.ANY_OF'>, 'ASSIGNJS': <function ASSIGNJS>, 'AppConfig': <function AppConfig>, 'Auth': <class 'gluon.tools.Auth'>, 'B': <class 'gluon.html.B'>, 'BEAUTIFY': <class 'gluon.html.BEAUTIFY'>, 'BODY': <class 'gluon.html.BODY'>, 'BR': <class 'gluon.html.BR'>, 'BUTTON': <class 'gluon.html.BUTTON'>, ...}"
p69
sS'ccode'
p70
S'<code object <module> at 06171578, file "E:\\Stud...plications\\Cookr\\controllers/default.py", line 8>'
p71
ssS'lnum'
p72
I219
sS'lines'
p73
(dp74
I214
S'    if environment is None:'
p75
sI215
S'        environment = {}'
p76
sI216
S"    environment['__file__'] = layer"
p77
sI217
S"    environment['__name__'] = '__restricted__'"
p78
sI218
S'    try:'
p79
sI219
S'        exec(ccode, environment)'
p80
sI220
S'    except HTTP:'
p81
sI221
S'        raise'
p82
sI222
S'    except RestrictedError:'
p83
sI223
S'        # do not encapsulate (obfuscate) the original RestrictedError'
p84
ssS'call'
p85
S'(ccode=<code object <module> at 06171578, file "E:\\Stud...plications\\Cookr\\controllers/default.py", line 8>, environment={\'A\': <class \'gluon.html.A\'>, \'ANY_OF\': <class \'gluon.validators.ANY_OF\'>, \'ASSIGNJS\': <function ASSIGNJS>, \'AppConfig\': <function AppConfig>, \'Auth\': <class \'gluon.tools.Auth\'>, \'B\': <class \'gluon.html.B\'>, \'BEAUTIFY\': <class \'gluon.html.BEAUTIFY\'>, \'BODY\': <class \'gluon.html.BODY\'>, \'BR\': <class \'gluon.html.BR\'>, \'BUTTON\': <class \'gluon.html.BUTTON\'>, ...}, layer=r\'E:\\Studium\\SoSe2018\\web2py\\applications\\Cookr\\controllers/default.py\', scode=<code object <module> at 06171578, file "E:\\Stud...plications\\Cookr\\controllers/default.py", line 8>)'
p86
sS'func'
p87
S'restricted'
p88
sa(dp89
g64
S'E:\\Studium\\SoSe2018\\web2py\\applications\\Cookr\\controllers\\default.py'
p90
sg66
(dp91
sg72
I117
sg73
(dp92
I106
S'    return dict(form=auth())'
p93
sI107
S''
sI108
S'# ---- action to server uploaded static content (required) ---'
p94
sI109
S'@cache.action()'
p95
sI110
S'def download():'
p96
sI111
S'    """'
p97
sI112
S'    allows downloading of uploaded files'
p98
sI113
S'    http://..../[app]/default/download/[filename]'
p99
sI114
S'    """'
p100
sI115
S'    return response.download(request, db)'
p101
ssg85
S'()'
p102
sg87
S'<module>'
p103
sa(dp104
g64
S'E:\\Studium\\SoSe2018\\web2py\\gluon\\globals.py'
p105
sg66
(dp106
S'self'
p107
S'undefined'
p108
sS'f'
S'<function editRecipe>'
p109
ssg72
I419
sg73
(dp110
I416
S'        self.menu = []             # used by the default view layout'
p111
sI417
S'        self.files = []            # used by web2py_ajax.html'
p112
sI418
S'        self._vars = None'
p113
sI419
S'        self._caller = lambda f: f()'
p114
sI420
S'        self._view_environment = None'
p115
sI421
S'        self._custom_commit = None'
p116
sI422
S'        self._custom_rollback = None'
p117
sI423
S"        self.generic_patterns = ['*']"
p118
sI414
S"        self.flash = ''            # used by the default view layout"
p119
sI415
S'        self.meta = Storage()      # used by web2py_ajax.html'
p120
ssg85
S'(f=<function editRecipe>)'
p121
sg87
S'<lambda>'
p122
sa(dp123
g64
S'E:\\Studium\\SoSe2018\\web2py\\applications\\Cookr\\controllers\\default.py'
p124
sg66
(dp125
S'global SQLFORM'
p126
S"<class 'gluon.sqlhtml.SQLFORM'>"
p127
sS'args'
p128
g108
sS').process'
p129
g108
sS'global URL'
p130
S'<function URL>'
p131
sS'builtinnext'
p132
S'<built-in function next>'
p133
sS'recipeForm'
p134
g108
sS'db.recipe'
p135
S'<Table recipe (id, writer, category, difficulty,...n, forAmountOfPeople, creationDate, description)>'
p136
sS'global db'
p137
S'<DAL uri="sqlite://storage.sqlite">'
p138
sS'id'
p139
S'8'
ssg72
I54
sg73
(dp140
I49
S'    return locals()'
p141
sI50
S''
sI51
S'# http://hostname/Cookr/default/editRecipe/<recipe.id>'
p142
sI52
S'def editRecipe():'
p143
sI53
S'    id = request.args(0, cast=int)'
p144
sI54
S"    recipeForm = SQLFORM(db.recipe, id).process(next=URL('showRecipe', args=id))"
p145
sI55
S'    return locals()'
p146
sI56
S''
sI57
S'# Click on "Bearbeiten"/"Edit" Button: redirect to editRecipe/<recipe.id>'
p147
sI58
S'def editRecipeButton():'
p148
ssg85
S'()'
p149
sg87
S'editRecipe'
p150
sa(dp151
g64
S'E:\\Studium\\SoSe2018\\web2py\\gluon\\sqlhtml.py'
p152
sg66
(dp153
S'record'
p154
S'8'
sS'table._id'
p155
S'<pydal.objects.Field object>'
p156
sS').select'
p157
g108
sS'table._db'
p158
S'<DAL uri="sqlite://storage.sqlite">'
p159
sS'table'
p160
S'<Table recipe (id, writer, category, difficulty,...n, forAmountOfPeople, creationDate, description)>'
p161
ssg72
I1365
sg73
(dp162
I1360
S'        # try to retrieve the indicated record using its id'
p163
sI1361
S'        # otherwise ignore it'
p164
sI1362
S'        if record and isinstance(record, (int, long, str, unicodeT)):'
p165
sI1363
S'            if not str(record).isdigit():'
p166
sI1364
S'                raise HTTP(404, "Object not found")'
p167
sI1365
S'            record = table._db(table._id == record).select().first()'
p168
sI1366
S'            if not record:'
p169
sI1367
S'                raise HTTP(404, "Object not found")'
p170
sI1368
S'        self.record = record'
p171
sI1369
S''
ssg85
S"(self=<gluon.sqlhtml.SQLFORM object>, table=<Table recipe (id, writer, category, difficulty,...n, forAmountOfPeople, creationDate, description)>, record=8, deletable=False, linkto=None, upload=None, fields=['id', 'writer', 'category', 'difficulty', 'priceCategory', 'origin', 'title', 'duration', 'forAmountOfPeople', 'description'], labels=None, col3={}, submit_button='Submit', delete_label='Check to delete', showid=True, readonly=False, comments=True, keepopts=[], ignore_rw=False, record_id=None, formstyle=None, buttons=['submit'], separator=None, extra_fields=None, **attributes={})"
p172
sg87
g24
sa(dp173
g64
S'E:\\Studium\\SoSe2018\\web2py\\gluon\\packages\\dal\\pydal\\objects.py'
p174
sg66
(dp175
S'self.query'
p176
S'<Query ("recipe"."id" = 8)>'
p177
sS'adapter.select'
p178
S'<bound method SQLite.select of <pydal.adapters.sqlite.SQLite object>>'
p179
sS'fields'
p180
S'[<pydal.objects.Field object>, <pydal.objects.Field object>, <pydal.objects.Field object>, <pydal.objects.Field object>, <pydal.objects.Field object>, <pydal.objects.Field object>, <pydal.objects.Field object>, <pydal.objects.Field object>, <pydal.objects.Field object>, <pydal.objects.Field object>, <pydal.objects.Field object>]'
p181
sS'adapter'
p182
S'<pydal.adapters.sqlite.SQLite object>'
p183
sS'attributes'
p184
g19
sS'self'
p185
S'<Set ("recipe"."id" = 8)>'
p186
ssg72
I2250
sg73
(dp187
I2245
S"                                    attributes.get('join', None),"
p188
sI2246
S"                                    attributes.get('left', None),"
p189
sI2247
S"                                    attributes.get('orderby', None),"
p190
sI2248
S"                                    attributes.get('groupby', None))"
p191
sI2249
S'        fields = adapter.expand_all(fields, tablenames)'
p192
sI2250
S'        return adapter.select(self.query, fields, attributes)'
p193
sI2251
S''
sI2252
S'    def iterselect(self, *fields, **attributes):'
p194
sI2253
S'        adapter = self.db._adapter'
p195
sI2254
S'        tablenames = adapter.tables(self.query,'
p196
ssg85
S'(self=<Set ("recipe"."id" = 8)>, *fields=[<pydal.objects.Field object>, <pydal.objects.Field object>, <pydal.objects.Field object>, <pydal.objects.Field object>, <pydal.objects.Field object>, <pydal.objects.Field object>, <pydal.objects.Field object>, <pydal.objects.Field object>, <pydal.objects.Field object>, <pydal.objects.Field object>, <pydal.objects.Field object>], **attributes={})'
p197
sg87
S'select'
p198
sa(dp199
g64
S'E:\\Studium\\SoSe2018\\web2py\\gluon\\packages\\dal\\pydal\\adapters\\sqlite.py'
p200
sg66
(dp201
S'fields'
p202
S'[<pydal.objects.Field object>, <pydal.objects.Field object>, <pydal.objects.Field object>, <pydal.objects.Field object>, <pydal.objects.Field object>, <pydal.objects.Field object>, <pydal.objects.Field object>, <pydal.objects.Field object>, <pydal.objects.Field object>, <pydal.objects.Field object>, <pydal.objects.Field object>]'
p203
sS'self'
p204
S'<pydal.adapters.sqlite.SQLite object>'
p205
sS').select'
p206
S'<bound method SQLite.select of <pydal.adapters.sqlite.SQLite object>>'
p207
sS'attributes'
p208
g19
sS'query'
p209
S'<Query ("recipe"."id" = 8)>'
p210
sS'builtinsuper'
p211
S"<type 'super'>"
p212
sS'global SQLite'
p213
S"<class 'pydal.adapters.sqlite.SQLite'>"
p214
ssg72
I82
sg73
(dp215
I77
S"            self.execute('PRAGMA foreign_keys=ON;')"
p216
sI78
S''
sI79
S'    def select(self, query, fields, attributes):'
p217
sI80
S"        if attributes.get('for_update', False) and 'cache' not in attributes:"
p218
sI81
S"            self.execute('BEGIN IMMEDIATE TRANSACTION;')"
p219
sI82
S'        return super(SQLite, self).select(query, fields, attributes)'
p220
sI83
S''
sI84
S'    def delete(self, table, query):'
p221
sI85
S'        db = self.db'
p222
sI86
S'        deleted = [x[table._id.name] for x in db(query).select(table._id)]'
p223
ssg85
S'(self=<pydal.adapters.sqlite.SQLite object>, query=<Query ("recipe"."id" = 8)>, fields=[<pydal.objects.Field object>, <pydal.objects.Field object>, <pydal.objects.Field object>, <pydal.objects.Field object>, <pydal.objects.Field object>, <pydal.objects.Field object>, <pydal.objects.Field object>, <pydal.objects.Field object>, <pydal.objects.Field object>, <pydal.objects.Field object>, <pydal.objects.Field object>], attributes={})'
p224
sg87
g198
sa(dp225
g64
S'E:\\Studium\\SoSe2018\\web2py\\gluon\\packages\\dal\\pydal\\adapters\\base.py'
p226
sg66
(dp227
S'self._select_aux'
p228
S'<bound method SQLite._select_aux of <pydal.adapters.sqlite.SQLite object>>'
p229
sS'fields'
p230
S'[<pydal.objects.Field object>, <pydal.objects.Field object>, <pydal.objects.Field object>, <pydal.objects.Field object>, <pydal.objects.Field object>, <pydal.objects.Field object>, <pydal.objects.Field object>, <pydal.objects.Field object>, <pydal.objects.Field object>, <pydal.objects.Field object>, <pydal.objects.Field object>]'
p231
sS'self'
p232
S'<pydal.adapters.sqlite.SQLite object>'
p233
sS'sql'
p234
S'\'SELECT "recipe"."id", "recipe"."writer", "recipe...ription" FROM "recipe" WHERE ("recipe"."id" = 8);\''
p235
sS'attributes'
p236
g19
sS'colnames'
p237
S"['recipe.id', 'recipe.writer', 'recipe.category', 'recipe.difficulty', 'recipe.priceCategory', 'recipe.origin', 'recipe.title', 'recipe.duration', 'recipe.forAmountOfPeople', 'recipe.creationDate', 'recipe.description']"
p238
ssg72
I762
sg73
(dp239
I757
S'        colnames, sql = self._select_wcols(query, fields, **attributes)'
p240
sI758
S"        cache = attributes.get('cache', None)"
p241
sI759
S"        if cache and attributes.get('cacheable', False):"
p242
sI760
S'            return self._cached_select('
p243
sI761
S'                cache, sql, fields, attributes, colnames)'
p244
sI762
S'        return self._select_aux(sql, fields, attributes, colnames)'
p245
sI763
S''
sI764
S'    def iterselect(self, query, fields, attributes):'
p246
sI765
S'        colnames, sql = self._select_wcols(query, fields, **attributes)'
p247
sI766
S"        cacheable = attributes.get('cacheable', False)"
p248
ssg85
S'(self=<pydal.adapters.sqlite.SQLite object>, query=<Query ("recipe"."id" = 8)>, fields=[<pydal.objects.Field object>, <pydal.objects.Field object>, <pydal.objects.Field object>, <pydal.objects.Field object>, <pydal.objects.Field object>, <pydal.objects.Field object>, <pydal.objects.Field object>, <pydal.objects.Field object>, <pydal.objects.Field object>, <pydal.objects.Field object>, <pydal.objects.Field object>], attributes={})'
p249
sg87
g198
sa(dp250
g64
S'E:\\Studium\\SoSe2018\\web2py\\gluon\\packages\\dal\\pydal\\adapters\\base.py'
p251
sg66
(dp252
S'fields'
p253
S'[<pydal.objects.Field object>, <pydal.objects.Field object>, <pydal.objects.Field object>, <pydal.objects.Field object>, <pydal.objects.Field object>, <pydal.objects.Field object>, <pydal.objects.Field object>, <pydal.objects.Field object>, <pydal.objects.Field object>, <pydal.objects.Field object>, <pydal.objects.Field object>]'
p254
sS'colnames'
p255
S"['recipe.id', 'recipe.writer', 'recipe.category', 'recipe.difficulty', 'recipe.priceCategory', 'recipe.origin', 'recipe.title', 'recipe.duration', 'recipe.forAmountOfPeople', 'recipe.creationDate', 'recipe.description']"
p256
sS'rows'
p257
S"[(8, 3, 2, 1, 2, 1, u'Schweinebraten', 200, 2, datetime.date(2018, 6, 8), u'Leckerer Schweinebraten (nicht fettig)')]"
p258
sS'processor'
p259
S'<bound method SQLite.parse of <pydal.adapters.sqlite.SQLite object>>'
p260
sS'cacheable'
p261
S'False'
p262
ssg72
I741
sg73
(dp263
I736
S'            rows = list(rows)'
p264
sI737
S"        limitby = attributes.get('limitby', None) or (0,)"
p265
sI738
S'        rows = self.rowslice(rows, limitby[0], None)'
p266
sI739
S"        processor = attributes.get('processor', self.parse)"
p267
sI740
S"        cacheable = attributes.get('cacheable', False)"
p268
sI741
S'        return processor(rows, fields, colnames, cacheable=cacheable)'
p269
sI742
S''
sI743
S'    def _cached_select(self, cache, sql, fields, attributes, colnames):'
p270
sI744
S"        del attributes['cache']"
p271
sI745
S'        (cache_model, time_expire) = cache'
p272
ssg85
S'(self=<pydal.adapters.sqlite.SQLite object>, sql=\'SELECT "recipe"."id", "recipe"."writer", "recipe...ription" FROM "recipe" WHERE ("recipe"."id" = 8);\', fields=[<pydal.objects.Field object>, <pydal.objects.Field object>, <pydal.objects.Field object>, <pydal.objects.Field object>, <pydal.objects.Field object>, <pydal.objects.Field object>, <pydal.objects.Field object>, <pydal.objects.Field object>, <pydal.objects.Field object>, <pydal.objects.Field object>, <pydal.objects.Field object>], attributes={}, colnames=[\'recipe.id\', \'recipe.writer\', \'recipe.category\', \'recipe.difficulty\', \'recipe.priceCategory\', \'recipe.origin\', \'recipe.title\', \'recipe.duration\', \'recipe.forAmountOfPeople\', \'recipe.creationDate\', \'recipe.description\'])'
p273
sg87
S'_select_aux'
p274
sa(dp275
g64
S'E:\\Studium\\SoSe2018\\web2py\\gluon\\packages\\dal\\pydal\\adapters\\base.py'
p276
sg66
(dp277
S'rows'
p278
S"[(8, 3, 2, 1, 2, 1, u'Schweinebraten', 200, 2, datetime.date(2018, 6, 8), u'Leckerer Schweinebraten (nicht fettig)')]"
p279
sS'row'
p280
S"(8, 3, 2, 1, 2, 1, u'Schweinebraten', 200, 2, datetime.date(2018, 6, 8), u'Leckerer Schweinebraten (nicht fettig)')"
p281
ssg72
I305
sg73
(dp282
I300
S'            self._parse_expand_colnames(fields)'
p283
sI301
S'        new_rows = ['
p284
sI302
S'            self._parse('
p285
sI303
S'                row, tmps, fields, colnames, blob_decode, cacheable,'
p286
sI304
S'                fields_virtual, fields_lazy)'
p287
sI305
S'            for row in rows'
p288
sI306
S'        ]'
p289
sI307
S'        rowsobj = self.db.Rows(self.db, new_rows, colnames, rawrows=rows,'
p290
sI308
S'                fields=fields)'
p291
sI309
S'        # Old style virtual fields'
p292
ssg85
S"(self=<pydal.adapters.sqlite.SQLite object>, rows=[(8, 3, 2, 1, 2, 1, u'Schweinebraten', 200, 2, datetime.date(2018, 6, 8), u'Leckerer Schweinebraten (nicht fettig)')], fields=[<pydal.objects.Field object>, <pydal.objects.Field object>, <pydal.objects.Field object>, <pydal.objects.Field object>, <pydal.objects.Field object>, <pydal.objects.Field object>, <pydal.objects.Field object>, <pydal.objects.Field object>, <pydal.objects.Field object>, <pydal.objects.Field object>, <pydal.objects.Field object>], colnames=['recipe.id', 'recipe.writer', 'recipe.category', 'recipe.difficulty', 'recipe.priceCategory', 'recipe.origin', 'recipe.title', 'recipe.duration', 'recipe.forAmountOfPeople', 'recipe.creationDate', 'recipe.description'], blob_decode=True, cacheable=False)"
p293
sg87
S'parse'
p294
sa(dp295
g64
S'E:\\Studium\\SoSe2018\\web2py\\gluon\\packages\\dal\\pydal\\adapters\\base.py'
p296
sg66
(dp297
S'blob_decode'
p298
S'True'
p299
sS'ft'
p300
S"'list:reference db.difficulty.name'"
p301
sS'fit'
p302
S"'list:reference'"
p303
sS'self.parse_value'
p304
S'<bound method SQLite.parse_value of <pydal.adapters.sqlite.SQLite object>>'
p305
sS'self'
p306
S'<pydal.adapters.sqlite.SQLite object>'
p307
sS'value'
p308
S'1'
ssg72
I231
sg73
(dp309
I226
S'            #: do we have a real column?'
p310
sI227
S'            if tmp:'
p311
sI228
S'                (tablename, fieldname, table, field, ft, fit) = tmp'
p312
sI229
S'                colset = new_row[tablename]'
p313
sI230
S'                #: parse value'
p314
sI231
S'                value = self.parse_value(value, fit, ft, blob_decode)'
p315
sI232
S'                if field.filter_out:'
p316
sI233
S'                    value = field.filter_out(value)'
p317
sI234
S'                colset[fieldname] = value'
p318
sI235
S'                #! backward compatibility'
p319
ssg85
S"(self=<pydal.adapters.sqlite.SQLite object>, row=(8, 3, 2, 1, 2, 1, u'Schweinebraten', 200, 2, datetime.date(2018, 6, 8), u'Leckerer Schweinebraten (nicht fettig)'), tmps=[('recipe', 'id', <Table recipe (id, writer, category, difficulty,...n, forAmountOfPeople, creationDate, description)>, <pydal.objects.Field object>, 'id', 'id'), ('recipe', 'writer', <Table recipe (id, writer, category, difficulty,...n, forAmountOfPeople, creationDate, description)>, <pydal.objects.Field object>, 'reference auth_user', 'reference'), ('recipe', 'category', <Table recipe (id, writer, category, difficulty,...n, forAmountOfPeople, creationDate, description)>, <pydal.objects.Field object>, 'reference category', 'reference'), ('recipe', 'difficulty', <Table recipe (id, writer, category, difficulty,...n, forAmountOfPeople, creationDate, description)>, <pydal.objects.Field object>, 'list:reference db.difficulty.name', 'list:reference'), ('recipe', 'priceCategory', <Table recipe (id, writer, category, difficulty,...n, forAmountOfPeople, creationDate, description)>, <pydal.objects.Field object>, 'reference priceCategory', 'reference'), ('recipe', 'origin', <Table recipe (id, writer, category, difficulty,...n, forAmountOfPeople, creationDate, description)>, <pydal.objects.Field object>, 'reference origin', 'reference'), ('recipe', 'title', <Table recipe (id, writer, category, difficulty,...n, forAmountOfPeople, creationDate, description)>, <pydal.objects.Field object>, 'string', 'string'), ('recipe', 'duration', <Table recipe (id, writer, category, difficulty,...n, forAmountOfPeople, creationDate, description)>, <pydal.objects.Field object>, 'integer', 'integer'), ('recipe', 'forAmountOfPeople', <Table recipe (id, writer, category, difficulty,...n, forAmountOfPeople, creationDate, description)>, <pydal.objects.Field object>, 'integer', 'integer'), ('recipe', 'creationDate', <Table recipe (id, writer, category, difficulty,...n, forAmountOfPeople, creationDate, description)>, <pydal.objects.Field object>, 'date', 'date'), ('recipe', 'description', <Table recipe (id, writer, category, difficulty,...n, forAmountOfPeople, creationDate, description)>, <pydal.objects.Field object>, 'text', 'text')], fields=[<pydal.objects.Field object>, <pydal.objects.Field object>, <pydal.objects.Field object>, <pydal.objects.Field object>, <pydal.objects.Field object>, <pydal.objects.Field object>, <pydal.objects.Field object>, <pydal.objects.Field object>, <pydal.objects.Field object>, <pydal.objects.Field object>, <pydal.objects.Field object>], colnames=['recipe.id', 'recipe.writer', 'recipe.category', 'recipe.difficulty', 'recipe.priceCategory', 'recipe.origin', 'recipe.title', 'recipe.duration', 'recipe.forAmountOfPeople', 'recipe.creationDate', 'recipe.description'], blob_decode=True, cacheable=False, fields_virtual={'recipe': (<Table recipe (id, writer, category, difficulty,...n, forAmountOfPeople, creationDate, description)>, [])}, fields_lazy={'recipe': (<Table recipe (id, writer, category, difficulty,...n, forAmountOfPeople, creationDate, description)>, [])})"
p320
sg87
S'_parse'
p321
sa(dp322
g64
S'E:\\Studium\\SoSe2018\\web2py\\gluon\\packages\\dal\\pydal\\adapters\\base.py'
p323
sg66
(dp324
S'field_type'
p325
S"'list:reference db.difficulty.name'"
p326
sS'self'
p327
S'<pydal.adapters.sqlite.SQLite object>'
p328
sS'value'
p329
S'1'
sS'self.parser'
p330
S'<pydal.parsers.sqlite.SQLiteParser object>'
p331
sS'field_itype'
p332
S"'list:reference'"
p333
sS'self.parser.parse'
p334
S'<bound method SQLiteParser.parse of <pydal.parsers.sqlite.SQLiteParser object>>'
p335
ssg72
I198
sg73
(dp336
I193
S'        if not isinstance(field_type, str) or value is None:'
p337
sI194
S'            return value'
p338
sI195
S"        elif field_type == 'blob' and not blob_decode:"
p339
sI196
S'            return value'
p340
sI197
S'        else:'
p341
sI198
S'            return self.parser.parse(value, field_itype, field_type)'
p342
sI199
S''
sI200
S'    def _add_operators_to_parsed_row(self, rid, table, row):'
p343
sI201
S'        for key, record_operator in iteritems(self.db.record_operators):'
p344
sI202
S'            setattr(row, key, record_operator(row, table, rid))'
p345
ssg85
S"(self=<pydal.adapters.sqlite.SQLite object>, value=1, field_itype='list:reference', field_type='list:reference db.difficulty.name', blob_decode=True)"
p346
sg87
S'parse_value'
p347
sa(dp348
g64
S'E:\\Studium\\SoSe2018\\web2py\\gluon\\packages\\dal\\pydal\\parsers\\__init__.py'
p349
sg66
(dp350
S'field_itype'
p351
S"'list:reference'"
p352
sS'field_type'
p353
S"'list:reference db.difficulty.name'"
p354
sS'self'
p355
S'<pydal.parsers.sqlite.SQLiteParser object>'
p356
sS'self.registered'
p357
S'defaultdict(<function <lambda> at 0x0617A8B0>, {...rsers.ParserMethodWrapper object at 0x041A6550>})'
p358
sS'value'
p359
S'1'
ssg72
I101
sg73
(dp360
I96
S''
sI97
S'    def _default(self, value, field_type):'
p361
sI98
S'        return value'
p362
sI99
S''
sI100
S'    def parse(self, value, field_itype, field_type):'
p363
sI101
S'        return self.registered[field_itype](value, field_type)'
p364
sI102
S''
sI103
S''
sI104
S'from .base import BasicParser'
p365
sI105
S'from .sqlite import SQLiteParser'
p366
ssg85
S"(self=<pydal.parsers.sqlite.SQLiteParser object>, value=1, field_itype='list:reference', field_type='list:reference db.difficulty.name')"
p367
sg87
g294
sa(dp368
g64
S'E:\\Studium\\SoSe2018\\web2py\\gluon\\packages\\dal\\pydal\\parsers\\__init__.py'
p369
sg66
(dp370
S'field_type'
p371
S"'list:reference db.difficulty.name'"
p372
sS'self'
p373
S'<pydal.parsers.ParserMethodWrapper object>'
p374
sS'self.call'
p375
S'<bound method ParserMethodWrapper._call_with_extras of <pydal.parsers.ParserMethodWrapper object>>'
p376
sS'value'
p377
S'1'
ssg72
I76
sg73
(dp378
I71
S''
sI72
S'    def _call(self, value, field_type):'
p379
sI73
S'        return self.f(self.parser, value)'
p380
sI74
S''
sI75
S'    def __call__(self, value, field_type):'
p381
sI76
S'        return self.call(value, field_type)'
p382
sI77
S''
sI78
S''
sI79
S'class Parser(with_metaclass(MetaParser)):'
p383
sI80
S'    def __init__(self, adapter):'
p384
ssg85
S"(self=<pydal.parsers.ParserMethodWrapper object>, value=1, field_type='list:reference db.difficulty.name')"
p385
sg87
S'__call__'
p386
sa(dp387
g64
S'E:\\Studium\\SoSe2018\\web2py\\gluon\\packages\\dal\\pydal\\parsers\\__init__.py'
p388
sg66
(dp389
S'self'
p390
S'<pydal.parsers.ParserMethodWrapper object>'
p391
sS'extras'
p392
S"{'field_type': 'list:reference db.difficulty.name'}"
p393
sS'self.f'
p394
S'<function _list_references>'
p395
sS'self.parser'
p396
S'<pydal.parsers.sqlite.SQLiteParser object>'
p397
sS'value'
p398
S'1'
ssg72
I70
sg73
(dp399
I65
S'        else:'
p400
sI66
S'            self.call = self._call'
p401
sI67
S''
sI68
S'    def _call_with_extras(self, value, field_type):'
p402
sI69
S'        extras = self.extra(self.parser, field_type)'
p403
sI70
S'        return self.f(self.parser, value, **extras)'
p404
sI71
S''
sI72
S'    def _call(self, value, field_type):'
p405
sI73
S'        return self.f(self.parser, value)'
p406
sI74
S''
ssg85
S"(self=<pydal.parsers.ParserMethodWrapper object>, value=1, field_type='list:reference db.difficulty.name')"
p407
sg87
S'_call_with_extras'
p408
sa(dp409
g64
S'E:\\Studium\\SoSe2018\\web2py\\gluon\\packages\\dal\\pydal\\parsers\\base.py'
p410
sg66
(dp411
S'global bar_decode_integer'
p412
S'<function bar_decode_integer>'
p413
sS'value'
p414
S'1'
ssg72
I146
sg73
(dp415
I141
S'    def _list_strings(self, value):'
p416
sI142
S'        return bar_decode_string(value)'
p417
sI143
S''
sI144
S"    @for_type('list:reference')"
p418
sI145
S'    def _list_references(self, value, field_type):'
p419
sI146
S'        value = bar_decode_integer(value)'
p420
sI147
S"        return [self.registered['reference']("
p421
sI148
S'            el, field_type[5:]) for el in value]'
p422
sI149
S''
sI150
S''
ssg85
S"(self=<pydal.parsers.sqlite.SQLiteParser object>, value=1, field_type='list:reference db.difficulty.name')"
p423
sg87
S'_list_references'
p424
sa(dp425
g64
S'E:\\Studium\\SoSe2018\\web2py\\gluon\\packages\\dal\\pydal\\helpers\\methods.py'
p426
sg66
(dp427
S'x'
g108
sS'value.split'
p428
g108
sS'value'
p429
S'1'
sS'long'
p430
S"<type 'long'>"
p431
ssg72
I102
sg73
(dp432
I97
S''
sI98
S'def bar_decode_integer(value):'
p433
sI99
S'    long = integer_types[-1]'
p434
sI100
S"    if not hasattr(value, 'split') and hasattr(value, 'read'):"
p435
sI101
S'        value = value.read()'
p436
sI102
S"    return [long(x) for x in value.split('|') if x.strip()]"
p437
sI103
S''
sI104
S''
sI105
S'def bar_decode_string(value):'
p438
sI106
S"    return [x.replace('||', '|') for x in"
p439
ssg85
S'(value=1)'
p440
sg87
S'bar_decode_integer'
p441
sasS'pyver'
p442
S'Python 2.7.9: E:\\Studium\\SoSe2018\\web2py\\web2py.exe (prefix: )'
p443
sS'session'
p444
g59
(S's\x84\n\x00\x00<div><table><tr><td style="font-weight:bold;vertical-align:top;">auth</td><td style="vertical-align:top;">:</td><td><div><table><tr><td style="font-weight:bold;vertical-align:top;">expiration</td><td style="vertical-align:top;">:</td><td><div>3600</div></td></tr><tr><td style="font-weight:bold;vertical-align:top;">hmac_key</td><td style="vertical-align:top;">:</td><td><div>c94505db-5af7-4439-b225-8133577a1cc5</div></td></tr><tr><td style="font-weight:bold;vertical-align:top;">last_visit</td><td style="vertical-align:top;">:</td><td><div>datetime.datetime(2018, 6, 8, 17, 19, 28, 55000)</div></td></tr><tr><td style="font-weight:bold;vertical-align:top;">remember_me</td><td style="vertical-align:top;">:</td><td><div>False</div></td></tr><tr><td style="font-weight:bold;vertical-align:top;">user</td><td style="vertical-align:top;">:</td><td><div><table><tr><td style="font-weight:bold;vertical-align:top;">email</td><td style="vertical-align:top;">:</td><td><div>list.corinna@gmail.com</div></td></tr><tr><td style="font-weight:bold;vertical-align:top;">first_name</td><td style="vertical-align:top;">:</td><td><div></div></td></tr><tr><td style="font-weight:bold;vertical-align:top;">id</td><td style="vertical-align:top;">:</td><td><div>3L</div></td></tr><tr><td style="font-weight:bold;vertical-align:top;">last_name</td><td style="vertical-align:top;">:</td><td><div></div></td></tr><tr><td style="font-weight:bold;vertical-align:top;">registration_id</td><td style="vertical-align:top;">:</td><td><div></div></td></tr><tr><td style="font-weight:bold;vertical-align:top;">registration_key</td><td style="vertical-align:top;">:</td><td><div></div></td></tr><tr><td style="font-weight:bold;vertical-align:top;">reset_password_key</td><td style="vertical-align:top;">:</td><td><div></div></td></tr><tr><td style="font-weight:bold;vertical-align:top;">username</td><td style="vertical-align:top;">:</td><td><div>elyra</div></td></tr></table></div></td></tr><tr><td style="font-weight:bold;vertical-align:top;">user_groups</td><td style="vertical-align:top;">:</td><td><div><table><tr><td style="font-weight:bold;vertical-align:top;">3</td><td style="vertical-align:top;">:</td><td><div>user_3</div></td></tr></table></div></td></tr></table></div></td></tr><tr><td style="font-weight:bold;vertical-align:top;">flash</td><td style="vertical-align:top;">:</td><td><div>None</div></td></tr><tr><td style="font-weight:bold;vertical-align:top;">last_orderby</td><td style="vertical-align:top;">:</td><td><div>None</div></td></tr><tr><td style="font-weight:bold;vertical-align:top;">last_query</td><td style="vertical-align:top;">:</td><td><div>db.recipe.id&gt;0</div></td></tr></table></div>'
tRp445
sS'etype'
p446
S"<type 'exceptions.AttributeError'>"
p447
sS'date'
p448
S'Fri Jun 08 17:20:40 2018'
p449
sS'response'
p450
g59
(S's,\x1e\x00\x00<div><table><tr><td style="font-weight:bold;vertical-align:top;">body</td><td style="vertical-align:top;">:</td><td><div>&lt;cStringIO.StringO object at 0x0625E600&gt;</div></td></tr><tr><td style="font-weight:bold;vertical-align:top;">cookies</td><td style="vertical-align:top;">:</td><td><div><table><tr><td style="font-weight:bold;vertical-align:top;">session_id_cookr</td><td style="vertical-align:top;">:</td><td><div>127.0.0.1-624d3bcf-7f69-4f3a-9fb5-4a0def9a30f2<table><tr><td style="font-weight:bold;vertical-align:top;">comment</td><td style="vertical-align:top;">:</td><td><div></div></td></tr><tr><td style="font-weight:bold;vertical-align:top;">domain</td><td style="vertical-align:top;">:</td><td><div></div></td></tr><tr><td style="font-weight:bold;vertical-align:top;">expires</td><td style="vertical-align:top;">:</td><td><div></div></td></tr><tr><td style="font-weight:bold;vertical-align:top;">httponly</td><td style="vertical-align:top;">:</td><td><div></div></td></tr><tr><td style="font-weight:bold;vertical-align:top;">max-age</td><td style="vertical-align:top;">:</td><td><div></div></td></tr><tr><td style="font-weight:bold;vertical-align:top;">path</td><td style="vertical-align:top;">:</td><td><div>/</div></td></tr><tr><td style="font-weight:bold;vertical-align:top;">secure</td><td style="vertical-align:top;">:</td><td><div></div></td></tr><tr><td style="font-weight:bold;vertical-align:top;">version</td><td style="vertical-align:top;">:</td><td><div></div></td></tr></table></div></td></tr></table></div></td></tr><tr><td style="font-weight:bold;vertical-align:top;">delimiters</td><td style="vertical-align:top;">:</td><td><div><table><tr><td><div>{{</div></td></tr><tr><td><div>}}</div></td></tr></table></div></td></tr><tr><td style="font-weight:bold;vertical-align:top;">files</td><td style="vertical-align:top;">:</td><td><div><table></table></div></td></tr><tr><td style="font-weight:bold;vertical-align:top;">flash</td><td style="vertical-align:top;">:</td><td><div></div></td></tr><tr><td style="font-weight:bold;vertical-align:top;">form_label_separator</td><td style="vertical-align:top;">:</td><td><div></div></td></tr><tr><td style="font-weight:bold;vertical-align:top;">formstyle</td><td style="vertical-align:top;">:</td><td><div>bootstrap4_inline</div></td></tr><tr><td style="font-weight:bold;vertical-align:top;">generic_patterns</td><td style="vertical-align:top;">:</td><td><div><table><tr><td><div>*</div></td></tr></table></div></td></tr><tr><td style="font-weight:bold;vertical-align:top;">google_analytics_id</td><td style="vertical-align:top;">:</td><td><div>None</div></td></tr><tr><td style="font-weight:bold;vertical-align:top;">headers</td><td style="vertical-align:top;">:</td><td><div><table><tr><td style="font-weight:bold;vertical-align:top;">X-Powered-By</td><td style="vertical-align:top;">:</td><td><div>web2py</div></td></tr></table></div></td></tr><tr><td style="font-weight:bold;vertical-align:top;">menu</td><td style="vertical-align:top;">:</td><td><div><table><tr><td><div><table><tr><td><div>Home</div></td></tr><tr><td><div>False</div></td></tr><tr><td><div>/Cookr/default/index</div></td></tr><tr><td><div><table></table></div></td></tr></table></div></td></tr><tr><td><div><table><tr><td><div>Alle Rezepte</div></td></tr><tr><td><div>False</div></td></tr><tr><td><div>/Cookr/default/recipeList/0</div></td></tr><tr><td><div><table></table></div></td></tr></table></div></td></tr><tr><td><div><table><tr><td><div>Eigene Rezepte verwalten</div></td></tr><tr><td><div>False</div></td></tr><tr><td><div>/Cookr/default/manageRecipes</div></td></tr><tr><td><div><table></table></div></td></tr></table></div></td></tr><tr><td><div><table><tr><td><div>Neues Rezept</div></td></tr><tr><td><div>False</div></td></tr><tr><td><div>/Cookr/default/newRecipe</div></td></tr><tr><td><div><table></table></div></td></tr></table></div></td></tr></table></div></td></tr><tr><td style="font-weight:bold;vertical-align:top;">meta</td><td style="vertical-align:top;">:</td><td><div><table><tr><td style="font-weight:bold;vertical-align:top;">author</td><td style="vertical-align:top;">:</td><td><div>Your Name &lt;you@example.com&gt;</div></td></tr><tr><td style="font-weight:bold;vertical-align:top;">description</td><td style="vertical-align:top;">:</td><td><div>a cool new app</div></td></tr><tr><td style="font-weight:bold;vertical-align:top;">generator</td><td style="vertical-align:top;">:</td><td><div>Web2py Web Framework</div></td></tr><tr><td style="font-weight:bold;vertical-align:top;">keywords</td><td style="vertical-align:top;">:</td><td><div><table><tr><td><div>web2py</div></td></tr><tr><td><div>python</div></td></tr><tr><td><div>framework</div></td></tr></table></div></td></tr></table></div></td></tr><tr><td style="font-weight:bold;vertical-align:top;">models_to_run</td><td style="vertical-align:top;">:</td><td><div><table><tr><td><div>^\\w+\\.py$</div></td></tr><tr><td><div>^default/\\w+\\.py$</div></td></tr><tr><td><div>^default/editRecipe/\\w+\\.py$</div></td></tr></table></div></td></tr><tr><td style="font-weight:bold;vertical-align:top;">postprocessing</td><td style="vertical-align:top;">:</td><td><div><table></table></div></td></tr><tr><td style="font-weight:bold;vertical-align:top;">session_client</td><td style="vertical-align:top;">:</td><td><div>127.0.0.1</div></td></tr><tr><td style="font-weight:bold;vertical-align:top;">session_cookie_compression_level</td><td style="vertical-align:top;">:</td><td><div>None</div></td></tr><tr><td style="font-weight:bold;vertical-align:top;">session_cookie_expires</td><td style="vertical-align:top;">:</td><td><div>None</div></td></tr><tr><td style="font-weight:bold;vertical-align:top;">session_data_name</td><td style="vertical-align:top;">:</td><td><div>session_data_cookr</div></td></tr><tr><td style="font-weight:bold;vertical-align:top;">session_file</td><td style="vertical-align:top;">:</td><td><div>&lt;open file &#x27;E:\\\\Studium\\\\SoSe2018\\\\web2py\\\\applications\\\\Cookr\\\\sessions\\\\129\\\\0f4\\\\127.0.0.1-624d3bcf-7f69-4f3a-9fb5-4a0def9a30f2&#x27;, mode &#x27;rb+&#x27; at 0x0616BA18&gt;</div></td></tr><tr><td style="font-weight:bold;vertical-align:top;">session_filename</td><td style="vertical-align:top;">:</td><td><div>E:\\Studium\\SoSe2018\\web2py\\applications\\Cookr\\sessions\\127.0.0.1-624d3bcf-7f69-4f3a-9fb5-4a0def9a30f2</div></td></tr><tr><td style="font-weight:bold;vertical-align:top;">session_hash</td><td style="vertical-align:top;">:</td><td><div>c1885999b6f03f5b64ea9ce9007b0a13</div></td></tr><tr><td style="font-weight:bold;vertical-align:top;">session_id</td><td style="vertical-align:top;">:</td><td><div>127.0.0.1-624d3bcf-7f69-4f3a-9fb5-4a0def9a30f2</div></td></tr><tr><td style="font-weight:bold;vertical-align:top;">session_id_name</td><td style="vertical-align:top;">:</td><td><div>session_id_cookr</div></td></tr><tr><td style="font-weight:bold;vertical-align:top;">session_locked</td><td style="vertical-align:top;">:</td><td><div>True</div></td></tr><tr><td style="font-weight:bold;vertical-align:top;">session_masterapp</td><td style="vertical-align:top;">:</td><td><div>Cookr</div></td></tr><tr><td style="font-weight:bold;vertical-align:top;">session_new</td><td style="vertical-align:top;">:</td><td><div>False</div></td></tr><tr><td style="font-weight:bold;vertical-align:top;">session_storage_type</td><td style="vertical-align:top;">:</td><td><div>file</div></td></tr><tr><td style="font-weight:bold;vertical-align:top;">status</td><td style="vertical-align:top;">:</td><td><div>200</div></td></tr><tr><td style="font-weight:bold;vertical-align:top;">view</td><td style="vertical-align:top;">:</td><td><div>default/editRecipe.html</div></td></tr></table></div>'
tRp451
sS'locals'
p452
(dp453
S'value'
p454
S'1'
sS'long'
p455
S"<type 'long'>"
p456
sssS'traceback'
p457
S'Traceback (most recent call last):\n  File "E:\\Studium\\SoSe2018\\web2py\\gluon\\restricted.py", line 219, in restricted\n    exec(ccode, environment)\n  File "E:\\Studium\\SoSe2018\\web2py\\applications\\Cookr\\controllers/default.py", line 117, in <module>\n  File "E:\\Studium\\SoSe2018\\web2py\\gluon\\globals.py", line 419, in <lambda>\n    self._caller = lambda f: f()\n  File "E:\\Studium\\SoSe2018\\web2py\\applications\\Cookr\\controllers/default.py", line 54, in editRecipe\n    recipeForm = SQLFORM(db.recipe, id).process(next=URL(\'showRecipe\', args=id))\n  File "E:\\Studium\\SoSe2018\\web2py\\gluon\\sqlhtml.py", line 1365, in __init__\n    record = table._db(table._id == record).select().first()\n  File "E:\\Studium\\SoSe2018\\web2py\\gluon\\packages\\dal\\pydal\\objects.py", line 2250, in select\n    return adapter.select(self.query, fields, attributes)\n  File "E:\\Studium\\SoSe2018\\web2py\\gluon\\packages\\dal\\pydal\\adapters\\sqlite.py", line 82, in select\n    return super(SQLite, self).select(query, fields, attributes)\n  File "E:\\Studium\\SoSe2018\\web2py\\gluon\\packages\\dal\\pydal\\adapters\\base.py", line 762, in select\n    return self._select_aux(sql, fields, attributes, colnames)\n  File "E:\\Studium\\SoSe2018\\web2py\\gluon\\packages\\dal\\pydal\\adapters\\base.py", line 741, in _select_aux\n    return processor(rows, fields, colnames, cacheable=cacheable)\n  File "E:\\Studium\\SoSe2018\\web2py\\gluon\\packages\\dal\\pydal\\adapters\\base.py", line 305, in parse\n    for row in rows\n  File "E:\\Studium\\SoSe2018\\web2py\\gluon\\packages\\dal\\pydal\\adapters\\base.py", line 231, in _parse\n    value = self.parse_value(value, fit, ft, blob_decode)\n  File "E:\\Studium\\SoSe2018\\web2py\\gluon\\packages\\dal\\pydal\\adapters\\base.py", line 198, in parse_value\n    return self.parser.parse(value, field_itype, field_type)\n  File "E:\\Studium\\SoSe2018\\web2py\\gluon\\packages\\dal\\pydal\\parsers\\__init__.py", line 101, in parse\n    return self.registered[field_itype](value, field_type)\n  File "E:\\Studium\\SoSe2018\\web2py\\gluon\\packages\\dal\\pydal\\parsers\\__init__.py", line 76, in __call__\n    return self.call(value, field_type)\n  File "E:\\Studium\\SoSe2018\\web2py\\gluon\\packages\\dal\\pydal\\parsers\\__init__.py", line 70, in _call_with_extras\n    return self.f(self.parser, value, **extras)\n  File "E:\\Studium\\SoSe2018\\web2py\\gluon\\packages\\dal\\pydal\\parsers\\base.py", line 146, in _list_references\n    value = bar_decode_integer(value)\n  File "E:\\Studium\\SoSe2018\\web2py\\gluon\\packages\\dal\\pydal\\helpers\\methods.py", line 102, in bar_decode_integer\n    return [long(x) for x in value.split(\'|\') if x.strip()]\nAttributeError: \'int\' object has no attribute \'split\'\n'
p458
s.